
frost.krn:     file format elf32-i386


Disassembly of section .text:

00100000 <_ZN3GDT4INITEv-0x10>:
  100000:	02 b0 ad 1b 03 00    	add    0x31bad(%eax),%dh
  100006:	00 00                	add    %al,(%eax)
  100008:	fb                   	sti    
  100009:	4f                   	dec    %edi
  10000a:	52                   	push   %edx
  10000b:	e4 00                	in     $0x0,%al
  10000d:	00 00                	add    %al,(%eax)
	...

00100010 <_ZN3GDT4INITEv>:
  100010:	53                   	push   %ebx
  100011:	56                   	push   %esi
  100012:	57                   	push   %edi
  100013:	b8 38 50 10 00       	mov    $0x105038,%eax
  100018:	a3 e0 53 12 00       	mov    %eax,0x1253e0
  10001d:	c7 05 40 50 10 00 10 	movl   $0x10,0x105040
  100024:	00 00 00 
  100027:	6a 0c                	push   $0xc
  100029:	68 9a 00 00 00       	push   $0x9a
  10002e:	68 ff ff 0f 00       	push   $0xfffff
  100033:	6a 00                	push   $0x0
  100035:	6a 01                	push   $0x1
  100037:	e8 a4 00 00 00       	call   1000e0 <_ZN3GDT9SET_ENTRYEtjjhh>
  10003c:	83 c4 14             	add    $0x14,%esp
  10003f:	6a 0c                	push   $0xc
  100041:	68 92 00 00 00       	push   $0x92
  100046:	68 ff ff 0f 00       	push   $0xfffff
  10004b:	6a 00                	push   $0x0
  10004d:	6a 02                	push   $0x2
  10004f:	e8 8c 00 00 00       	call   1000e0 <_ZN3GDT9SET_ENTRYEtjjhh>
  100054:	83 c4 14             	add    $0x14,%esp
  100057:	6a 0c                	push   $0xc
  100059:	68 fa 00 00 00       	push   $0xfa
  10005e:	68 ff ff 0f 00       	push   $0xfffff
  100063:	6a 00                	push   $0x0
  100065:	6a 03                	push   $0x3
  100067:	e8 74 00 00 00       	call   1000e0 <_ZN3GDT9SET_ENTRYEtjjhh>
  10006c:	83 c4 14             	add    $0x14,%esp
  10006f:	6a 0c                	push   $0xc
  100071:	68 f2 00 00 00       	push   $0xf2
  100076:	68 ff ff 0f 00       	push   $0xfffff
  10007b:	6a 00                	push   $0x0
  10007d:	6a 04                	push   $0x4
  10007f:	e8 5c 00 00 00       	call   1000e0 <_ZN3GDT9SET_ENTRYEtjjhh>
  100084:	83 c4 14             	add    $0x14,%esp
  100087:	6a 00                	push   $0x0
  100089:	68 e9 00 00 00       	push   $0xe9
  10008e:	68 80 00 00 00       	push   $0x80
  100093:	ff 35 e0 53 12 00    	pushl  0x1253e0
  100099:	6a 05                	push   $0x5
  10009b:	e8 40 00 00 00       	call   1000e0 <_ZN3GDT9SET_ENTRYEtjjhh>
  1000a0:	83 c4 14             	add    $0x14,%esp
  1000a3:	66 c7 05 00 50 10 00 	movw   $0x2f,0x105000
  1000aa:	2f 00 
  1000ac:	b8 08 50 10 00       	mov    $0x105008,%eax
  1000b1:	a3 02 50 10 00       	mov    %eax,0x105002
  1000b6:	0f 01 15 00 50 10 00 	lgdtl  0x105000
  1000bd:	66 b8 10 00          	mov    $0x10,%ax
  1000c1:	8e d8                	mov    %eax,%ds
  1000c3:	8e c0                	mov    %eax,%es
  1000c5:	8e e0                	mov    %eax,%fs
  1000c7:	8e e8                	mov    %eax,%gs
  1000c9:	8e d0                	mov    %eax,%ss
  1000cb:	ea d2 00 10 00 08 00 	ljmp   $0x8,$0x1000d2

001000d2 <gdt_jmp>:
  1000d2:	66 b8 28 00          	mov    $0x28,%ax
  1000d6:	0f 00 d8             	ltr    %ax
  1000d9:	5f                   	pop    %edi
  1000da:	5e                   	pop    %esi
  1000db:	5b                   	pop    %ebx
  1000dc:	c3                   	ret    
  1000dd:	8d 76 00             	lea    0x0(%esi),%esi

001000e0 <_ZN3GDT9SET_ENTRYEtjjhh>:
  1000e0:	55                   	push   %ebp
  1000e1:	89 e5                	mov    %esp,%ebp
  1000e3:	53                   	push   %ebx
  1000e4:	8b 45 10             	mov    0x10(%ebp),%eax
  1000e7:	25 ff ff 00 00       	and    $0xffff,%eax
  1000ec:	0f b7 5d 08          	movzwl 0x8(%ebp),%ebx
  1000f0:	66 89 04 dd 08 50 10 	mov    %ax,0x105008(,%ebx,8)
  1000f7:	00 
  1000f8:	8b 45 0c             	mov    0xc(%ebp),%eax
  1000fb:	25 ff ff 00 00       	and    $0xffff,%eax
  100100:	0f b7 5d 08          	movzwl 0x8(%ebp),%ebx
  100104:	66 89 04 dd 0a 50 10 	mov    %ax,0x10500a(,%ebx,8)
  10010b:	00 
  10010c:	8b 45 0c             	mov    0xc(%ebp),%eax
  10010f:	c1 e8 10             	shr    $0x10,%eax
  100112:	25 ff 00 00 00       	and    $0xff,%eax
  100117:	88 c3                	mov    %al,%bl
  100119:	0f b7 45 08          	movzwl 0x8(%ebp),%eax
  10011d:	88 1c c5 0c 50 10 00 	mov    %bl,0x10500c(,%eax,8)
  100124:	0f b7 5d 08          	movzwl 0x8(%ebp),%ebx
  100128:	8a 45 14             	mov    0x14(%ebp),%al
  10012b:	88 04 dd 0d 50 10 00 	mov    %al,0x10500d(,%ebx,8)
  100132:	8b 45 10             	mov    0x10(%ebp),%eax
  100135:	c1 e8 10             	shr    $0x10,%eax
  100138:	25 ff 00 00 00       	and    $0xff,%eax
  10013d:	83 e0 0f             	and    $0xf,%eax
  100140:	88 c3                	mov    %al,%bl
  100142:	0f b7 45 08          	movzwl 0x8(%ebp),%eax
  100146:	88 1c c5 0e 50 10 00 	mov    %bl,0x10500e(,%eax,8)
  10014d:	0f b7 5d 08          	movzwl 0x8(%ebp),%ebx
  100151:	0f b6 04 dd 0e 50 10 	movzbl 0x10500e(,%ebx,8),%eax
  100158:	00 
  100159:	0f b6 5d 18          	movzbl 0x18(%ebp),%ebx
  10015d:	c1 e3 04             	shl    $0x4,%ebx
  100160:	81 e3 f0 00 00 00    	and    $0xf0,%ebx
  100166:	09 d8                	or     %ebx,%eax
  100168:	88 c3                	mov    %al,%bl
  10016a:	0f b7 45 08          	movzwl 0x8(%ebp),%eax
  10016e:	88 1c c5 0e 50 10 00 	mov    %bl,0x10500e(,%eax,8)
  100175:	8b 5d 0c             	mov    0xc(%ebp),%ebx
  100178:	c1 eb 10             	shr    $0x10,%ebx
  10017b:	81 e3 00 ff 00 00    	and    $0xff00,%ebx
  100181:	c1 eb 08             	shr    $0x8,%ebx
  100184:	88 d8                	mov    %bl,%al
  100186:	0f b7 5d 08          	movzwl 0x8(%ebp),%ebx
  10018a:	88 04 dd 0f 50 10 00 	mov    %al,0x10500f(,%ebx,8)
  100191:	5b                   	pop    %ebx
  100192:	89 ec                	mov    %ebp,%esp
  100194:	5d                   	pop    %ebp
  100195:	c3                   	ret    
  100196:	8d 76 00             	lea    0x0(%esi),%esi
  100199:	8d bc 27 00 00 00 00 	lea    0x0(%edi,%eiz,1),%edi

001001a0 <fb_ctor__gdt>:
  1001a0:	c3                   	ret    
	...

001001b0 <HANDLE_INTERRUPT>:
  1001b0:	55                   	push   %ebp
  1001b1:	89 e5                	mov    %esp,%ebp
  1001b3:	83 ec 14             	sub    $0x14,%esp
  1001b6:	53                   	push   %ebx
  1001b7:	56                   	push   %esi
  1001b8:	57                   	push   %edi
  1001b9:	c7 45 fc 00 00 00 00 	movl   $0x0,-0x4(%ebp)
  1001c0:	8b 45 08             	mov    0x8(%ebp),%eax
  1001c3:	89 45 f8             	mov    %eax,-0x8(%ebp)
  1001c6:	8b 45 08             	mov    0x8(%ebp),%eax
  1001c9:	8b 58 1c             	mov    0x1c(%eax),%ebx
  1001cc:	89 5d f4             	mov    %ebx,-0xc(%ebp)
  1001cf:	83 7d f4 00          	cmpl   $0x0,-0xc(%ebp)
  1001d3:	72 56                	jb     10022b <HANDLE_INTERRUPT+0x7b>
  1001d5:	83 7d f4 13          	cmpl   $0x13,-0xc(%ebp)
  1001d9:	77 50                	ja     10022b <HANDLE_INTERRUPT+0x7b>
  1001db:	6a 01                	push   $0x1
  1001dd:	68 00 40 10 00       	push   $0x104000
  1001e2:	e8 e9 06 00 00       	call   1008d0 <_ZN5VIDEO4COUTERch>
  1001e7:	83 c4 08             	add    $0x8,%esp
  1001ea:	6a 00                	push   $0x0
  1001ec:	68 04 40 10 00       	push   $0x104004
  1001f1:	e8 da 06 00 00       	call   1008d0 <_ZN5VIDEO4COUTERch>
  1001f6:	83 c4 08             	add    $0x8,%esp
  1001f9:	6a 01                	push   $0x1
  1001fb:	8b 5d 08             	mov    0x8(%ebp),%ebx
  1001fe:	ff 73 1c             	pushl  0x1c(%ebx)
  100201:	e8 3a 07 00 00       	call   100940 <_ZN5VIDEO4COUTEjh>
  100206:	83 c4 08             	add    $0x8,%esp
  100209:	6a 01                	push   $0x1
  10020b:	68 00 40 10 00       	push   $0x104000
  100210:	e8 bb 06 00 00       	call   1008d0 <_ZN5VIDEO4COUTERch>
  100215:	83 c4 08             	add    $0x8,%esp
  100218:	6a 00                	push   $0x0
  10021a:	68 10 40 10 00       	push   $0x104010
  10021f:	e8 ac 06 00 00       	call   1008d0 <_ZN5VIDEO4COUTERch>
  100224:	83 c4 08             	add    $0x8,%esp
  100227:	fa                   	cli    
  100228:	f4                   	hlt    
  100229:	eb 66                	jmp    100291 <HANDLE_INTERRUPT+0xe1>
  10022b:	83 7d f4 20          	cmpl   $0x20,-0xc(%ebp)
  10022f:	75 1f                	jne    100250 <HANDLE_INTERRUPT+0xa0>
  100231:	ff 75 08             	pushl  0x8(%ebp)
  100234:	e8 47 18 00 00       	call   101a80 <_ZN5TASKS8SCHEDULEEP9CPU_STATE>
  100239:	83 c4 04             	add    $0x4,%esp
  10023c:	89 45 f8             	mov    %eax,-0x8(%ebp)
  10023f:	8b 45 f8             	mov    -0x8(%ebp),%eax
  100242:	83 c0 38             	add    $0x38,%eax
  100245:	8b 1d e0 53 12 00    	mov    0x1253e0,%ebx
  10024b:	89 43 04             	mov    %eax,0x4(%ebx)
  10024e:	eb 41                	jmp    100291 <HANDLE_INTERRUPT+0xe1>
  100250:	83 7d f4 62          	cmpl   $0x62,-0xc(%ebp)
  100254:	75 3b                	jne    100291 <HANDLE_INTERRUPT+0xe1>
  100256:	e8 a5 18 00 00       	call   101b00 <_ZN5TASKS16GET_CURRENT_TASKEv>
  10025b:	89 45 f0             	mov    %eax,-0x10(%ebp)
  10025e:	8b 45 08             	mov    0x8(%ebp),%eax
  100261:	8b 18                	mov    (%eax),%ebx
  100263:	89 5d ec             	mov    %ebx,-0x14(%ebp)
  100266:	83 7d ec 01          	cmpl   $0x1,-0x14(%ebp)
  10026a:	75 0d                	jne    100279 <HANDLE_INTERRUPT+0xc9>
  10026c:	8b 5d f0             	mov    -0x10(%ebp),%ebx
  10026f:	8b 45 08             	mov    0x8(%ebp),%eax
  100272:	8b 0b                	mov    (%ebx),%ecx
  100274:	89 48 04             	mov    %ecx,0x4(%eax)
  100277:	eb 18                	jmp    100291 <HANDLE_INTERRUPT+0xe1>
  100279:	81 7d ec 9a 02 00 00 	cmpl   $0x29a,-0x14(%ebp)
  100280:	75 0f                	jne    100291 <HANDLE_INTERRUPT+0xe1>
  100282:	6a 01                	push   $0x1
  100284:	68 20 40 10 00       	push   $0x104020
  100289:	e8 42 06 00 00       	call   1008d0 <_ZN5VIDEO4COUTERch>
  10028e:	83 c4 08             	add    $0x8,%esp
  100291:	8b 4d 08             	mov    0x8(%ebp),%ecx
  100294:	83 79 1c 1f          	cmpl   $0x1f,0x1c(%ecx)
  100298:	0f 97 c0             	seta   %al
  10029b:	d1 e8                	shr    %eax
  10029d:	19 c0                	sbb    %eax,%eax
  10029f:	8b 4d 08             	mov    0x8(%ebp),%ecx
  1002a2:	83 79 1c 30          	cmpl   $0x30,0x1c(%ecx)
  1002a6:	0f 92 c3             	setb   %bl
  1002a9:	d1 eb                	shr    %ebx
  1002ab:	19 db                	sbb    %ebx,%ebx
  1002ad:	21 d8                	and    %ebx,%eax
  1002af:	74 14                	je     1002c5 <HANDLE_INTERRUPT+0x115>
  1002b1:	8b 5d 08             	mov    0x8(%ebp),%ebx
  1002b4:	8b 43 1c             	mov    0x1c(%ebx),%eax
  1002b7:	83 c0 e0             	add    $0xffffffe0,%eax
  1002ba:	88 c3                	mov    %al,%bl
  1002bc:	53                   	push   %ebx
  1002bd:	e8 1e 1c 00 00       	call   101ee0 <_ZN3PIC8SEND_EOIEh>
  1002c2:	83 c4 04             	add    $0x4,%esp
  1002c5:	8b 5d 08             	mov    0x8(%ebp),%ebx
  1002c8:	3b 5d f8             	cmp    -0x8(%ebp),%ebx
  1002cb:	0f 94 c0             	sete   %al
  1002ce:	d1 e8                	shr    %eax
  1002d0:	19 c0                	sbb    %eax,%eax
  1002d2:	f7 d0                	not    %eax
  1002d4:	85 c0                	test   %eax,%eax
  1002d6:	74 11                	je     1002e9 <HANDLE_INTERRUPT+0x139>
  1002d8:	e8 23 18 00 00       	call   101b00 <_ZN5TASKS16GET_CURRENT_TASKEv>
  1002dd:	8b 58 08             	mov    0x8(%eax),%ebx
  1002e0:	89 5d f0             	mov    %ebx,-0x10(%ebp)
  1002e3:	8b 45 f0             	mov    -0x10(%ebp),%eax
  1002e6:	0f 22 d8             	mov    %eax,%cr3
  1002e9:	8b 5d f8             	mov    -0x8(%ebp),%ebx
  1002ec:	89 5d fc             	mov    %ebx,-0x4(%ebp)
  1002ef:	8b 45 fc             	mov    -0x4(%ebp),%eax
  1002f2:	5f                   	pop    %edi
  1002f3:	5e                   	pop    %esi
  1002f4:	5b                   	pop    %ebx
  1002f5:	89 ec                	mov    %ebp,%esp
  1002f7:	5d                   	pop    %ebp
  1002f8:	c3                   	ret    
  1002f9:	8d b4 26 00 00 00 00 	lea    0x0(%esi,%eiz,1),%esi

00100300 <fb_ctor__int_stubs>:
  100300:	c3                   	ret    
	...

00100310 <Z_LEN>:
  100310:	55                   	push   %ebp
  100311:	89 e5                	mov    %esp,%ebp
  100313:	83 ec 0c             	sub    $0xc,%esp
  100316:	53                   	push   %ebx
  100317:	c7 45 fc 00 00 00 00 	movl   $0x0,-0x4(%ebp)
  10031e:	8b 45 08             	mov    0x8(%ebp),%eax
  100321:	89 45 f8             	mov    %eax,-0x8(%ebp)
  100324:	c7 45 f4 00 00 00 00 	movl   $0x0,-0xc(%ebp)
  10032b:	8b 45 f8             	mov    -0x8(%ebp),%eax
  10032e:	03 45 f4             	add    -0xc(%ebp),%eax
  100331:	0f b6 18             	movzbl (%eax),%ebx
  100334:	85 db                	test   %ebx,%ebx
  100336:	76 05                	jbe    10033d <Z_LEN+0x2d>
  100338:	ff 45 f4             	incl   -0xc(%ebp)
  10033b:	eb ee                	jmp    10032b <Z_LEN+0x1b>
  10033d:	8b 5d f4             	mov    -0xc(%ebp),%ebx
  100340:	89 5d fc             	mov    %ebx,-0x4(%ebp)
  100343:	8b 45 fc             	mov    -0x4(%ebp),%eax
  100346:	5b                   	pop    %ebx
  100347:	89 ec                	mov    %ebp,%esp
  100349:	5d                   	pop    %ebp
  10034a:	c3                   	ret    
  10034b:	90                   	nop
  10034c:	8d 74 26 00          	lea    0x0(%esi,%eiz,1),%esi

00100350 <Z_INSTR>:
  100350:	55                   	push   %ebp
  100351:	89 e5                	mov    %esp,%ebp
  100353:	83 ec 28             	sub    $0x28,%esp
  100356:	53                   	push   %ebx
  100357:	c7 45 fc 00 00 00 00 	movl   $0x0,-0x4(%ebp)
  10035e:	c6 45 f8 00          	movb   $0x0,-0x8(%ebp)
  100362:	ff 75 08             	pushl  0x8(%ebp)
  100365:	e8 a6 ff ff ff       	call   100310 <Z_LEN>
  10036a:	83 c4 04             	add    $0x4,%esp
  10036d:	89 45 f4             	mov    %eax,-0xc(%ebp)
  100370:	ff 75 0c             	pushl  0xc(%ebp)
  100373:	e8 98 ff ff ff       	call   100310 <Z_LEN>
  100378:	83 c4 04             	add    $0x4,%esp
  10037b:	89 45 f0             	mov    %eax,-0x10(%ebp)
  10037e:	8b 45 08             	mov    0x8(%ebp),%eax
  100381:	89 45 ec             	mov    %eax,-0x14(%ebp)
  100384:	8b 45 0c             	mov    0xc(%ebp),%eax
  100387:	89 45 e8             	mov    %eax,-0x18(%ebp)
  10038a:	8b 45 f0             	mov    -0x10(%ebp),%eax
  10038d:	39 45 f4             	cmp    %eax,-0xc(%ebp)
  100390:	73 09                	jae    10039b <Z_INSTR+0x4b>
  100392:	c7 45 fc 00 00 00 00 	movl   $0x0,-0x4(%ebp)
  100399:	eb 77                	jmp    100412 <Z_INSTR+0xc2>
  10039b:	c7 45 e4 00 00 00 00 	movl   $0x0,-0x1c(%ebp)
  1003a2:	8b 45 f4             	mov    -0xc(%ebp),%eax
  1003a5:	2b 45 f0             	sub    -0x10(%ebp),%eax
  1003a8:	48                   	dec    %eax
  1003a9:	89 45 e0             	mov    %eax,-0x20(%ebp)
  1003ac:	eb 5c                	jmp    10040a <Z_INSTR+0xba>
  1003ae:	c6 45 f8 01          	movb   $0x1,-0x8(%ebp)
  1003b2:	c7 45 dc 00 00 00 00 	movl   $0x0,-0x24(%ebp)
  1003b9:	8b 45 f0             	mov    -0x10(%ebp),%eax
  1003bc:	48                   	dec    %eax
  1003bd:	89 45 d8             	mov    %eax,-0x28(%ebp)
  1003c0:	eb 2b                	jmp    1003ed <Z_INSTR+0x9d>
  1003c2:	8b 45 ec             	mov    -0x14(%ebp),%eax
  1003c5:	03 45 e4             	add    -0x1c(%ebp),%eax
  1003c8:	03 45 dc             	add    -0x24(%ebp),%eax
  1003cb:	0f b6 18             	movzbl (%eax),%ebx
  1003ce:	8b 45 e8             	mov    -0x18(%ebp),%eax
  1003d1:	03 45 dc             	add    -0x24(%ebp),%eax
  1003d4:	0f b6 08             	movzbl (%eax),%ecx
  1003d7:	39 cb                	cmp    %ecx,%ebx
  1003d9:	0f 94 c0             	sete   %al
  1003dc:	d1 e8                	shr    %eax
  1003de:	19 c0                	sbb    %eax,%eax
  1003e0:	f7 d0                	not    %eax
  1003e2:	85 c0                	test   %eax,%eax
  1003e4:	74 04                	je     1003ea <Z_INSTR+0x9a>
  1003e6:	c6 45 f8 00          	movb   $0x0,-0x8(%ebp)
  1003ea:	ff 45 dc             	incl   -0x24(%ebp)
  1003ed:	8b 45 d8             	mov    -0x28(%ebp),%eax
  1003f0:	39 45 dc             	cmp    %eax,-0x24(%ebp)
  1003f3:	76 cd                	jbe    1003c2 <Z_INSTR+0x72>
  1003f5:	0f b6 45 f8          	movzbl -0x8(%ebp),%eax
  1003f9:	83 f8 01             	cmp    $0x1,%eax
  1003fc:	75 09                	jne    100407 <Z_INSTR+0xb7>
  1003fe:	8b 45 e4             	mov    -0x1c(%ebp),%eax
  100401:	40                   	inc    %eax
  100402:	89 45 fc             	mov    %eax,-0x4(%ebp)
  100405:	eb 0b                	jmp    100412 <Z_INSTR+0xc2>
  100407:	ff 45 e4             	incl   -0x1c(%ebp)
  10040a:	8b 45 e0             	mov    -0x20(%ebp),%eax
  10040d:	39 45 e4             	cmp    %eax,-0x1c(%ebp)
  100410:	76 9c                	jbe    1003ae <Z_INSTR+0x5e>
  100412:	8b 45 fc             	mov    -0x4(%ebp),%eax
  100415:	5b                   	pop    %ebx
  100416:	89 ec                	mov    %ebp,%esp
  100418:	5d                   	pop    %ebp
  100419:	c3                   	ret    
  10041a:	00 00                	add    %al,(%eax)
  10041c:	00 00                	add    %al,(%eax)
	...

00100420 <_ZN6PAGING4INITEv>:
  100420:	55                   	push   %ebp
  100421:	89 e5                	mov    %esp,%ebp
  100423:	83 ec 04             	sub    $0x4,%esp
  100426:	e8 55 12 00 00       	call   101680 <_ZN3PMM5ALLOCEv>
  10042b:	a3 b8 50 10 00       	mov    %eax,0x1050b8
  100430:	ff 35 b8 50 10 00    	pushl  0x1050b8
  100436:	e8 e5 13 00 00       	call   101820 <_ZN3PMM5CLEANEPj>
  10043b:	83 c4 04             	add    $0x4,%esp
  10043e:	c7 45 fc 00 00 00 00 	movl   $0x0,-0x4(%ebp)
  100445:	6a 03                	push   $0x3
  100447:	ff 75 fc             	pushl  -0x4(%ebp)
  10044a:	ff 75 fc             	pushl  -0x4(%ebp)
  10044d:	ff 35 b8 50 10 00    	pushl  0x1050b8
  100453:	e8 38 00 00 00       	call   100490 <_ZN6PAGING8MAP_PAGEEPjjjj>
  100458:	83 c4 10             	add    $0x10,%esp
  10045b:	81 45 fc 00 10 00 00 	addl   $0x1000,-0x4(%ebp)
  100462:	81 7d fc 00 00 f0 03 	cmpl   $0x3f00000,-0x4(%ebp)
  100469:	76 da                	jbe    100445 <_ZN6PAGING4INITEv+0x25>
  10046b:	ff 35 b8 50 10 00    	pushl  0x1050b8
  100471:	e8 ba 02 00 00       	call   100730 <_ZN6PAGING18ACTIVATE_DIRECTORYEPj>
  100476:	83 c4 04             	add    $0x4,%esp
  100479:	e8 d2 02 00 00       	call   100750 <_ZN6PAGING8ACTIVATEEv>
  10047e:	89 ec                	mov    %ebp,%esp
  100480:	5d                   	pop    %ebp
  100481:	c3                   	ret    
  100482:	8d b4 26 00 00 00 00 	lea    0x0(%esi,%eiz,1),%esi
  100489:	8d bc 27 00 00 00 00 	lea    0x0(%edi,%eiz,1),%edi

00100490 <_ZN6PAGING8MAP_PAGEEPjjjj>:
  100490:	55                   	push   %ebp
  100491:	89 e5                	mov    %esp,%ebp
  100493:	83 ec 10             	sub    $0x10,%esp
  100496:	53                   	push   %ebx
  100497:	56                   	push   %esi
  100498:	57                   	push   %edi
  100499:	c6 45 fc 00          	movb   $0x0,-0x4(%ebp)
  10049d:	8b 45 0c             	mov    0xc(%ebp),%eax
  1004a0:	c1 e8 16             	shr    $0x16,%eax
  1004a3:	89 45 f8             	mov    %eax,-0x8(%ebp)
  1004a6:	8b 45 0c             	mov    0xc(%ebp),%eax
  1004a9:	c1 e8 0c             	shr    $0xc,%eax
  1004ac:	25 ff 03 00 00       	and    $0x3ff,%eax
  1004b1:	89 45 f4             	mov    %eax,-0xc(%ebp)
  1004b4:	c7 45 f0 00 00 00 00 	movl   $0x0,-0x10(%ebp)
  1004bb:	8b 45 0c             	mov    0xc(%ebp),%eax
  1004be:	25 ff 0f 00 00       	and    $0xfff,%eax
  1004c3:	85 c0                	test   %eax,%eax
  1004c5:	0f 97 c3             	seta   %bl
  1004c8:	d1 eb                	shr    %ebx
  1004ca:	19 db                	sbb    %ebx,%ebx
  1004cc:	8b 45 10             	mov    0x10(%ebp),%eax
  1004cf:	25 ff 0f 00 00       	and    $0xfff,%eax
  1004d4:	85 c0                	test   %eax,%eax
  1004d6:	0f 97 c1             	seta   %cl
  1004d9:	d1 e9                	shr    %ecx
  1004db:	19 c9                	sbb    %ecx,%ecx
  1004dd:	09 cb                	or     %ecx,%ebx
  1004df:	74 06                	je     1004e7 <_ZN6PAGING8MAP_PAGEEPjjjj+0x57>
  1004e1:	c6 45 fc 00          	movb   $0x0,-0x4(%ebp)
  1004e5:	eb 77                	jmp    10055e <_ZN6PAGING8MAP_PAGEEPjjjj+0xce>
  1004e7:	8b 4d f8             	mov    -0x8(%ebp),%ecx
  1004ea:	c1 e1 02             	shl    $0x2,%ecx
  1004ed:	8b 5d 08             	mov    0x8(%ebp),%ebx
  1004f0:	01 cb                	add    %ecx,%ebx
  1004f2:	83 3b 00             	cmpl   $0x0,(%ebx)
  1004f5:	75 35                	jne    10052c <_ZN6PAGING8MAP_PAGEEPjjjj+0x9c>
  1004f7:	e8 84 11 00 00       	call   101680 <_ZN3PMM5ALLOCEv>
  1004fc:	8b 5d f8             	mov    -0x8(%ebp),%ebx
  1004ff:	c1 e3 02             	shl    $0x2,%ebx
  100502:	8b 4d 08             	mov    0x8(%ebp),%ecx
  100505:	01 d9                	add    %ebx,%ecx
  100507:	89 01                	mov    %eax,(%ecx)
  100509:	8b 45 f8             	mov    -0x8(%ebp),%eax
  10050c:	c1 e0 02             	shl    $0x2,%eax
  10050f:	8b 4d 08             	mov    0x8(%ebp),%ecx
  100512:	01 c1                	add    %eax,%ecx
  100514:	ff 31                	pushl  (%ecx)
  100516:	e8 05 13 00 00       	call   101820 <_ZN3PMM5CLEANEPj>
  10051b:	83 c4 04             	add    $0x4,%esp
  10051e:	8b 4d f8             	mov    -0x8(%ebp),%ecx
  100521:	c1 e1 02             	shl    $0x2,%ecx
  100524:	8b 45 08             	mov    0x8(%ebp),%eax
  100527:	01 c8                	add    %ecx,%eax
  100529:	83 08 03             	orl    $0x3,(%eax)
  10052c:	8b 45 f8             	mov    -0x8(%ebp),%eax
  10052f:	c1 e0 02             	shl    $0x2,%eax
  100532:	8b 4d 08             	mov    0x8(%ebp),%ecx
  100535:	01 c1                	add    %eax,%ecx
  100537:	8b 01                	mov    (%ecx),%eax
  100539:	25 00 f0 ff ff       	and    $0xfffff000,%eax
  10053e:	89 c1                	mov    %eax,%ecx
  100540:	89 4d f0             	mov    %ecx,-0x10(%ebp)
  100543:	8b 4d 14             	mov    0x14(%ebp),%ecx
  100546:	0b 4d 10             	or     0x10(%ebp),%ecx
  100549:	8b 45 f4             	mov    -0xc(%ebp),%eax
  10054c:	c1 e0 02             	shl    $0x2,%eax
  10054f:	8b 5d f0             	mov    -0x10(%ebp),%ebx
  100552:	01 c3                	add    %eax,%ebx
  100554:	89 0b                	mov    %ecx,(%ebx)
  100556:	0f 01 7d 0c          	invlpg 0xc(%ebp)
  10055a:	c6 45 fc ff          	movb   $0xff,-0x4(%ebp)
  10055e:	8a 45 fc             	mov    -0x4(%ebp),%al
  100561:	5f                   	pop    %edi
  100562:	5e                   	pop    %esi
  100563:	5b                   	pop    %ebx
  100564:	89 ec                	mov    %ebp,%esp
  100566:	5d                   	pop    %ebp
  100567:	c3                   	ret    
  100568:	90                   	nop
  100569:	8d b4 26 00 00 00 00 	lea    0x0(%esi,%eiz,1),%esi

00100570 <_ZN6PAGING10GET_P_ADDREPjjh>:
  100570:	55                   	push   %ebp
  100571:	89 e5                	mov    %esp,%ebp
  100573:	83 ec 10             	sub    $0x10,%esp
  100576:	53                   	push   %ebx
  100577:	c7 45 fc 00 00 00 00 	movl   $0x0,-0x4(%ebp)
  10057e:	8b 45 0c             	mov    0xc(%ebp),%eax
  100581:	c1 e8 16             	shr    $0x16,%eax
  100584:	89 45 f8             	mov    %eax,-0x8(%ebp)
  100587:	8b 45 0c             	mov    0xc(%ebp),%eax
  10058a:	c1 e8 0c             	shr    $0xc,%eax
  10058d:	25 ff 03 00 00       	and    $0x3ff,%eax
  100592:	89 45 f4             	mov    %eax,-0xc(%ebp)
  100595:	c7 45 f0 00 00 00 00 	movl   $0x0,-0x10(%ebp)
  10059c:	8b 45 f8             	mov    -0x8(%ebp),%eax
  10059f:	c1 e0 02             	shl    $0x2,%eax
  1005a2:	8b 5d 08             	mov    0x8(%ebp),%ebx
  1005a5:	01 c3                	add    %eax,%ebx
  1005a7:	83 3b 00             	cmpl   $0x0,(%ebx)
  1005aa:	75 4c                	jne    1005f8 <_ZN6PAGING10GET_P_ADDREPjjh+0x88>
  1005ac:	0f b6 5d 10          	movzbl 0x10(%ebp),%ebx
  1005b0:	83 fb 01             	cmp    $0x1,%ebx
  1005b3:	75 37                	jne    1005ec <_ZN6PAGING10GET_P_ADDREPjjh+0x7c>
  1005b5:	e8 c6 10 00 00       	call   101680 <_ZN3PMM5ALLOCEv>
  1005ba:	8b 5d f8             	mov    -0x8(%ebp),%ebx
  1005bd:	c1 e3 02             	shl    $0x2,%ebx
  1005c0:	8b 4d 08             	mov    0x8(%ebp),%ecx
  1005c3:	01 d9                	add    %ebx,%ecx
  1005c5:	89 01                	mov    %eax,(%ecx)
  1005c7:	8b 45 f8             	mov    -0x8(%ebp),%eax
  1005ca:	c1 e0 02             	shl    $0x2,%eax
  1005cd:	8b 4d 08             	mov    0x8(%ebp),%ecx
  1005d0:	01 c1                	add    %eax,%ecx
  1005d2:	ff 31                	pushl  (%ecx)
  1005d4:	e8 47 12 00 00       	call   101820 <_ZN3PMM5CLEANEPj>
  1005d9:	83 c4 04             	add    $0x4,%esp
  1005dc:	8b 4d f8             	mov    -0x8(%ebp),%ecx
  1005df:	c1 e1 02             	shl    $0x2,%ecx
  1005e2:	8b 45 08             	mov    0x8(%ebp),%eax
  1005e5:	01 c8                	add    %ecx,%eax
  1005e7:	83 08 07             	orl    $0x7,(%eax)
  1005ea:	eb 0c                	jmp    1005f8 <_ZN6PAGING10GET_P_ADDREPjjh+0x88>
  1005ec:	c7 45 fc 00 00 00 00 	movl   $0x0,-0x4(%ebp)
  1005f3:	e9 90 00 00 00       	jmp    100688 <_ZN6PAGING10GET_P_ADDREPjjh+0x118>
  1005f8:	8b 45 f8             	mov    -0x8(%ebp),%eax
  1005fb:	c1 e0 02             	shl    $0x2,%eax
  1005fe:	8b 4d 08             	mov    0x8(%ebp),%ecx
  100601:	01 c1                	add    %eax,%ecx
  100603:	8b 01                	mov    (%ecx),%eax
  100605:	25 00 f0 ff ff       	and    $0xfffff000,%eax
  10060a:	89 c1                	mov    %eax,%ecx
  10060c:	89 4d f0             	mov    %ecx,-0x10(%ebp)
  10060f:	8b 4d f4             	mov    -0xc(%ebp),%ecx
  100612:	c1 e1 02             	shl    $0x2,%ecx
  100615:	8b 45 f0             	mov    -0x10(%ebp),%eax
  100618:	01 c8                	add    %ecx,%eax
  10061a:	83 38 00             	cmpl   $0x0,(%eax)
  10061d:	75 49                	jne    100668 <_ZN6PAGING10GET_P_ADDREPjjh+0xf8>
  10061f:	0f b6 45 10          	movzbl 0x10(%ebp),%eax
  100623:	83 f8 01             	cmp    $0x1,%eax
  100626:	75 37                	jne    10065f <_ZN6PAGING10GET_P_ADDREPjjh+0xef>
  100628:	e8 53 10 00 00       	call   101680 <_ZN3PMM5ALLOCEv>
  10062d:	8b 4d f4             	mov    -0xc(%ebp),%ecx
  100630:	c1 e1 02             	shl    $0x2,%ecx
  100633:	8b 5d f0             	mov    -0x10(%ebp),%ebx
  100636:	01 cb                	add    %ecx,%ebx
  100638:	89 03                	mov    %eax,(%ebx)
  10063a:	8b 45 f4             	mov    -0xc(%ebp),%eax
  10063d:	c1 e0 02             	shl    $0x2,%eax
  100640:	8b 5d f0             	mov    -0x10(%ebp),%ebx
  100643:	01 c3                	add    %eax,%ebx
  100645:	ff 33                	pushl  (%ebx)
  100647:	e8 d4 11 00 00       	call   101820 <_ZN3PMM5CLEANEPj>
  10064c:	83 c4 04             	add    $0x4,%esp
  10064f:	8b 5d f4             	mov    -0xc(%ebp),%ebx
  100652:	c1 e3 02             	shl    $0x2,%ebx
  100655:	8b 45 f0             	mov    -0x10(%ebp),%eax
  100658:	01 d8                	add    %ebx,%eax
  10065a:	83 08 07             	orl    $0x7,(%eax)
  10065d:	eb 09                	jmp    100668 <_ZN6PAGING10GET_P_ADDREPjjh+0xf8>
  10065f:	c7 45 fc 00 00 00 00 	movl   $0x0,-0x4(%ebp)
  100666:	eb 20                	jmp    100688 <_ZN6PAGING10GET_P_ADDREPjjh+0x118>
  100668:	8b 45 f4             	mov    -0xc(%ebp),%eax
  10066b:	c1 e0 02             	shl    $0x2,%eax
  10066e:	8b 5d f0             	mov    -0x10(%ebp),%ebx
  100671:	01 c3                	add    %eax,%ebx
  100673:	8b 03                	mov    (%ebx),%eax
  100675:	25 00 f0 ff ff       	and    $0xfffff000,%eax
  10067a:	8b 5d 0c             	mov    0xc(%ebp),%ebx
  10067d:	81 e3 ff 0f 00 00    	and    $0xfff,%ebx
  100683:	09 d8                	or     %ebx,%eax
  100685:	89 45 fc             	mov    %eax,-0x4(%ebp)
  100688:	8b 45 fc             	mov    -0x4(%ebp),%eax
  10068b:	5b                   	pop    %ebx
  10068c:	89 ec                	mov    %ebp,%esp
  10068e:	5d                   	pop    %ebp
  10068f:	c3                   	ret    

00100690 <_ZN6PAGING17COPY_INTO_CONTEXTEPjjjj>:
  100690:	55                   	push   %ebp
  100691:	89 e5                	mov    %esp,%ebp
  100693:	83 ec 10             	sub    $0x10,%esp
  100696:	53                   	push   %ebx
  100697:	8b 45 0c             	mov    0xc(%ebp),%eax
  10069a:	89 45 fc             	mov    %eax,-0x4(%ebp)
  10069d:	6a 01                	push   $0x1
  10069f:	ff 75 14             	pushl  0x14(%ebp)
  1006a2:	ff 75 08             	pushl  0x8(%ebp)
  1006a5:	e8 c6 fe ff ff       	call   100570 <_ZN6PAGING10GET_P_ADDREPjjh>
  1006aa:	83 c4 0c             	add    $0xc,%esp
  1006ad:	89 45 f8             	mov    %eax,-0x8(%ebp)
  1006b0:	8b 45 f8             	mov    -0x8(%ebp),%eax
  1006b3:	25 00 f0 ff ff       	and    $0xfffff000,%eax
  1006b8:	89 45 f4             	mov    %eax,-0xc(%ebp)
  1006bb:	8b 45 14             	mov    0x14(%ebp),%eax
  1006be:	89 45 f0             	mov    %eax,-0x10(%ebp)
  1006c1:	8b 45 10             	mov    0x10(%ebp),%eax
  1006c4:	03 45 0c             	add    0xc(%ebp),%eax
  1006c7:	39 45 fc             	cmp    %eax,-0x4(%ebp)
  1006ca:	77 50                	ja     10071c <_ZN6PAGING17COPY_INTO_CONTEXTEPjjjj+0x8c>
  1006cc:	8b 45 fc             	mov    -0x4(%ebp),%eax
  1006cf:	8b 5d f8             	mov    -0x8(%ebp),%ebx
  1006d2:	8a 08                	mov    (%eax),%cl
  1006d4:	88 0b                	mov    %cl,(%ebx)
  1006d6:	ff 45 fc             	incl   -0x4(%ebp)
  1006d9:	ff 45 f8             	incl   -0x8(%ebp)
  1006dc:	8b 4d f4             	mov    -0xc(%ebp),%ecx
  1006df:	81 c1 00 10 00 00    	add    $0x1000,%ecx
  1006e5:	39 4d f8             	cmp    %ecx,-0x8(%ebp)
  1006e8:	0f 92 c3             	setb   %bl
  1006eb:	d1 eb                	shr    %ebx
  1006ed:	19 db                	sbb    %ebx,%ebx
  1006ef:	f7 d3                	not    %ebx
  1006f1:	85 db                	test   %ebx,%ebx
  1006f3:	74 25                	je     10071a <_ZN6PAGING17COPY_INTO_CONTEXTEPjjjj+0x8a>
  1006f5:	81 45 f0 00 10 00 00 	addl   $0x1000,-0x10(%ebp)
  1006fc:	6a 01                	push   $0x1
  1006fe:	ff 75 f0             	pushl  -0x10(%ebp)
  100701:	ff 75 08             	pushl  0x8(%ebp)
  100704:	e8 67 fe ff ff       	call   100570 <_ZN6PAGING10GET_P_ADDREPjjh>
  100709:	83 c4 0c             	add    $0xc,%esp
  10070c:	89 45 f8             	mov    %eax,-0x8(%ebp)
  10070f:	8b 45 f8             	mov    -0x8(%ebp),%eax
  100712:	25 00 f0 ff ff       	and    $0xfffff000,%eax
  100717:	89 45 f4             	mov    %eax,-0xc(%ebp)
  10071a:	eb a5                	jmp    1006c1 <_ZN6PAGING17COPY_INTO_CONTEXTEPjjjj+0x31>
  10071c:	5b                   	pop    %ebx
  10071d:	89 ec                	mov    %ebp,%esp
  10071f:	5d                   	pop    %ebp
  100720:	c3                   	ret    
  100721:	eb 0d                	jmp    100730 <_ZN6PAGING18ACTIVATE_DIRECTORYEPj>
  100723:	90                   	nop
  100724:	90                   	nop
  100725:	90                   	nop
  100726:	90                   	nop
  100727:	90                   	nop
  100728:	90                   	nop
  100729:	90                   	nop
  10072a:	90                   	nop
  10072b:	90                   	nop
  10072c:	90                   	nop
  10072d:	90                   	nop
  10072e:	90                   	nop
  10072f:	90                   	nop

00100730 <_ZN6PAGING18ACTIVATE_DIRECTORYEPj>:
  100730:	55                   	push   %ebp
  100731:	89 e5                	mov    %esp,%ebp
  100733:	53                   	push   %ebx
  100734:	56                   	push   %esi
  100735:	57                   	push   %edi
  100736:	8b 45 08             	mov    0x8(%ebp),%eax
  100739:	0f 22 d8             	mov    %eax,%cr3
  10073c:	5f                   	pop    %edi
  10073d:	5e                   	pop    %esi
  10073e:	5b                   	pop    %ebx
  10073f:	89 ec                	mov    %ebp,%esp
  100741:	5d                   	pop    %ebp
  100742:	c3                   	ret    
  100743:	8d b6 00 00 00 00    	lea    0x0(%esi),%esi
  100749:	8d bc 27 00 00 00 00 	lea    0x0(%edi,%eiz,1),%edi

00100750 <_ZN6PAGING8ACTIVATEEv>:
  100750:	53                   	push   %ebx
  100751:	56                   	push   %esi
  100752:	57                   	push   %edi
  100753:	0f 20 c0             	mov    %cr0,%eax
  100756:	0d 00 00 00 80       	or     $0x80000000,%eax
  10075b:	0f 22 c0             	mov    %eax,%cr0
  10075e:	5f                   	pop    %edi
  10075f:	5e                   	pop    %esi
  100760:	5b                   	pop    %ebx
  100761:	c3                   	ret    
  100762:	8d b4 26 00 00 00 00 	lea    0x0(%esi,%eiz,1),%esi
  100769:	8d bc 27 00 00 00 00 	lea    0x0(%edi,%eiz,1),%edi

00100770 <fb_ctor__paging>:
  100770:	c3                   	ret    
	...

00100780 <_ZN5VIDEO13SCROLL_SCREENEv>:
  100780:	55                   	push   %ebp
  100781:	89 e5                	mov    %esp,%ebp
  100783:	83 ec 08             	sub    $0x8,%esp
  100786:	53                   	push   %ebx
  100787:	56                   	push   %esi
  100788:	c7 45 fc 00 00 00 00 	movl   $0x0,-0x4(%ebp)
  10078f:	c7 45 f8 00 00 00 00 	movl   $0x0,-0x8(%ebp)
  100796:	c7 45 fc 00 00 00 00 	movl   $0x0,-0x4(%ebp)
  10079d:	c7 45 f8 00 00 00 00 	movl   $0x0,-0x8(%ebp)
  1007a4:	8b 45 fc             	mov    -0x4(%ebp),%eax
  1007a7:	40                   	inc    %eax
  1007a8:	ba a0 00 00 00       	mov    $0xa0,%edx
  1007ad:	f7 e2                	mul    %edx
  1007af:	89 c3                	mov    %eax,%ebx
  1007b1:	a1 00 30 10 00       	mov    0x103000,%eax
  1007b6:	01 d8                	add    %ebx,%eax
  1007b8:	8b 5d f8             	mov    -0x8(%ebp),%ebx
  1007bb:	d1 e3                	shl    %ebx
  1007bd:	89 d9                	mov    %ebx,%ecx
  1007bf:	01 c8                	add    %ecx,%eax
  1007c1:	8b 4d fc             	mov    -0x4(%ebp),%ecx
  1007c4:	ba a0 00 00 00       	mov    $0xa0,%edx
  1007c9:	50                   	push   %eax
  1007ca:	89 c8                	mov    %ecx,%eax
  1007cc:	f7 e2                	mul    %edx
  1007ce:	89 c1                	mov    %eax,%ecx
  1007d0:	58                   	pop    %eax
  1007d1:	89 cb                	mov    %ecx,%ebx
  1007d3:	8b 0d 00 30 10 00    	mov    0x103000,%ecx
  1007d9:	01 d9                	add    %ebx,%ecx
  1007db:	8b 5d f8             	mov    -0x8(%ebp),%ebx
  1007de:	d1 e3                	shl    %ebx
  1007e0:	89 de                	mov    %ebx,%esi
  1007e2:	01 f1                	add    %esi,%ecx
  1007e4:	8a 18                	mov    (%eax),%bl
  1007e6:	88 19                	mov    %bl,(%ecx)
  1007e8:	8b 5d fc             	mov    -0x4(%ebp),%ebx
  1007eb:	43                   	inc    %ebx
  1007ec:	ba a0 00 00 00       	mov    $0xa0,%edx
  1007f1:	89 d8                	mov    %ebx,%eax
  1007f3:	f7 e2                	mul    %edx
  1007f5:	89 c3                	mov    %eax,%ebx
  1007f7:	89 d9                	mov    %ebx,%ecx
  1007f9:	8b 1d 00 30 10 00    	mov    0x103000,%ebx
  1007ff:	01 cb                	add    %ecx,%ebx
  100801:	8b 4d f8             	mov    -0x8(%ebp),%ecx
  100804:	d1 e1                	shl    %ecx
  100806:	89 c8                	mov    %ecx,%eax
  100808:	01 c3                	add    %eax,%ebx
  10080a:	8b 45 fc             	mov    -0x4(%ebp),%eax
  10080d:	ba a0 00 00 00       	mov    $0xa0,%edx
  100812:	f7 e2                	mul    %edx
  100814:	89 c1                	mov    %eax,%ecx
  100816:	a1 00 30 10 00       	mov    0x103000,%eax
  10081b:	01 c8                	add    %ecx,%eax
  10081d:	8b 4d f8             	mov    -0x8(%ebp),%ecx
  100820:	d1 e1                	shl    %ecx
  100822:	89 ce                	mov    %ecx,%esi
  100824:	01 f0                	add    %esi,%eax
  100826:	8a 4b 01             	mov    0x1(%ebx),%cl
  100829:	88 48 01             	mov    %cl,0x1(%eax)
  10082c:	ff 45 f8             	incl   -0x8(%ebp)
  10082f:	83 7d f8 4f          	cmpl   $0x4f,-0x8(%ebp)
  100833:	0f 86 6b ff ff ff    	jbe    1007a4 <_ZN5VIDEO13SCROLL_SCREENEv+0x24>
  100839:	ff 45 fc             	incl   -0x4(%ebp)
  10083c:	83 7d fc 18          	cmpl   $0x18,-0x4(%ebp)
  100840:	0f 86 57 ff ff ff    	jbe    10079d <_ZN5VIDEO13SCROLL_SCREENEv+0x1d>
  100846:	81 05 04 30 10 00 60 	addl   $0xffffff60,0x103004
  10084d:	ff ff ff 
  100850:	5e                   	pop    %esi
  100851:	5b                   	pop    %ebx
  100852:	89 ec                	mov    %ebp,%esp
  100854:	5d                   	pop    %ebp
  100855:	c3                   	ret    
  100856:	8d 76 00             	lea    0x0(%esi),%esi
  100859:	8d bc 27 00 00 00 00 	lea    0x0(%edi,%eiz,1),%edi

00100860 <_ZN5VIDEO4PUTCEh>:
  100860:	55                   	push   %ebp
  100861:	89 e5                	mov    %esp,%ebp
  100863:	53                   	push   %ebx
  100864:	0f b6 45 08          	movzbl 0x8(%ebp),%eax
  100868:	83 f8 0a             	cmp    $0xa,%eax
  10086b:	75 1d                	jne    10088a <_ZN5VIDEO4PUTCEh+0x2a>
  10086d:	a1 04 30 10 00       	mov    0x103004,%eax
  100872:	b9 a0 00 00 00       	mov    $0xa0,%ecx
  100877:	31 d2                	xor    %edx,%edx
  100879:	f7 f1                	div    %ecx
  10087b:	40                   	inc    %eax
  10087c:	ba a0 00 00 00       	mov    $0xa0,%edx
  100881:	f7 e2                	mul    %edx
  100883:	a3 04 30 10 00       	mov    %eax,0x103004
  100888:	eb 40                	jmp    1008ca <_ZN5VIDEO4PUTCEh+0x6a>
  10088a:	81 3d 04 30 10 00 9f 	cmpl   $0xf9f,0x103004
  100891:	0f 00 00 
  100894:	76 07                	jbe    10089d <_ZN5VIDEO4PUTCEh+0x3d>
  100896:	e8 e5 fe ff ff       	call   100780 <_ZN5VIDEO13SCROLL_SCREENEv>
  10089b:	eb ed                	jmp    10088a <_ZN5VIDEO4PUTCEh+0x2a>
  10089d:	a1 00 30 10 00       	mov    0x103000,%eax
  1008a2:	03 05 04 30 10 00    	add    0x103004,%eax
  1008a8:	8a 5d 08             	mov    0x8(%ebp),%bl
  1008ab:	88 18                	mov    %bl,(%eax)
  1008ad:	8b 1d 04 30 10 00    	mov    0x103004,%ebx
  1008b3:	43                   	inc    %ebx
  1008b4:	a1 00 30 10 00       	mov    0x103000,%eax
  1008b9:	01 d8                	add    %ebx,%eax
  1008bb:	8a 1d 08 30 10 00    	mov    0x103008,%bl
  1008c1:	88 18                	mov    %bl,(%eax)
  1008c3:	83 05 04 30 10 00 02 	addl   $0x2,0x103004
  1008ca:	5b                   	pop    %ebx
  1008cb:	89 ec                	mov    %ebp,%esp
  1008cd:	5d                   	pop    %ebp
  1008ce:	c3                   	ret    
  1008cf:	90                   	nop

001008d0 <_ZN5VIDEO4COUTERch>:
  1008d0:	55                   	push   %ebp
  1008d1:	89 e5                	mov    %esp,%ebp
  1008d3:	83 ec 08             	sub    $0x8,%esp
  1008d6:	53                   	push   %ebx
  1008d7:	0f b6 05 0c 30 10 00 	movzbl 0x10300c,%eax
  1008de:	83 f8 01             	cmp    $0x1,%eax
  1008e1:	75 02                	jne    1008e5 <_ZN5VIDEO4COUTERch+0x15>
  1008e3:	eb 4d                	jmp    100932 <_ZN5VIDEO4COUTERch+0x62>
  1008e5:	8b 45 08             	mov    0x8(%ebp),%eax
  1008e8:	89 45 fc             	mov    %eax,-0x4(%ebp)
  1008eb:	c7 45 f8 00 00 00 00 	movl   $0x0,-0x8(%ebp)
  1008f2:	8b 45 fc             	mov    -0x4(%ebp),%eax
  1008f5:	03 45 f8             	add    -0x8(%ebp),%eax
  1008f8:	0f be 18             	movsbl (%eax),%ebx
  1008fb:	85 db                	test   %ebx,%ebx
  1008fd:	0f 94 c3             	sete   %bl
  100900:	d1 eb                	shr    %ebx
  100902:	19 db                	sbb    %ebx,%ebx
  100904:	f7 d3                	not    %ebx
  100906:	85 db                	test   %ebx,%ebx
  100908:	74 15                	je     10091f <_ZN5VIDEO4COUTERch+0x4f>
  10090a:	8b 5d fc             	mov    -0x4(%ebp),%ebx
  10090d:	03 5d f8             	add    -0x8(%ebp),%ebx
  100910:	ff 33                	pushl  (%ebx)
  100912:	e8 49 ff ff ff       	call   100860 <_ZN5VIDEO4PUTCEh>
  100917:	83 c4 04             	add    $0x4,%esp
  10091a:	ff 45 f8             	incl   -0x8(%ebp)
  10091d:	eb d3                	jmp    1008f2 <_ZN5VIDEO4COUTERch+0x22>
  10091f:	0f b6 5d 0c          	movzbl 0xc(%ebp),%ebx
  100923:	83 e3 01             	and    $0x1,%ebx
  100926:	74 0a                	je     100932 <_ZN5VIDEO4COUTERch+0x62>
  100928:	6a 0a                	push   $0xa
  10092a:	e8 31 ff ff ff       	call   100860 <_ZN5VIDEO4PUTCEh>
  10092f:	83 c4 04             	add    $0x4,%esp
  100932:	5b                   	pop    %ebx
  100933:	89 ec                	mov    %ebp,%esp
  100935:	5d                   	pop    %ebp
  100936:	c3                   	ret    
  100937:	89 f6                	mov    %esi,%esi
  100939:	8d bc 27 00 00 00 00 	lea    0x0(%edi,%eiz,1),%edi

00100940 <_ZN5VIDEO4COUTEjh>:
  100940:	55                   	push   %ebp
  100941:	89 e5                	mov    %esp,%ebp
  100943:	83 ec 34             	sub    $0x34,%esp
  100946:	53                   	push   %ebx
  100947:	0f b6 05 0c 30 10 00 	movzbl 0x10300c,%eax
  10094e:	83 f8 01             	cmp    $0x1,%eax
  100951:	75 05                	jne    100958 <_ZN5VIDEO4COUTEjh+0x18>
  100953:	e9 e2 00 00 00       	jmp    100a3a <_ZN5VIDEO4COUTEjh+0xfa>
  100958:	c7 45 f4 00 00 00 00 	movl   $0x0,-0xc(%ebp)
  10095f:	c7 45 f8 00 00 00 00 	movl   $0x0,-0x8(%ebp)
  100966:	66 c7 45 fc 00 00    	movw   $0x0,-0x4(%ebp)
  10096c:	8d 45 f4             	lea    -0xc(%ebp),%eax
  10096f:	48                   	dec    %eax
  100970:	89 45 d4             	mov    %eax,-0x2c(%ebp)
  100973:	8d 45 f4             	lea    -0xc(%ebp),%eax
  100976:	89 45 d8             	mov    %eax,-0x28(%ebp)
  100979:	c7 45 dc 0a 00 00 00 	movl   $0xa,-0x24(%ebp)
  100980:	c7 45 e0 01 00 00 00 	movl   $0x1,-0x20(%ebp)
  100987:	c7 45 e4 01 00 00 00 	movl   $0x1,-0x1c(%ebp)
  10098e:	c7 45 e8 0a 00 00 00 	movl   $0xa,-0x18(%ebp)
  100995:	c7 45 ec 01 00 00 00 	movl   $0x1,-0x14(%ebp)
  10099c:	c7 45 f0 0a 00 00 00 	movl   $0xa,-0x10(%ebp)
  1009a3:	c6 45 d0 00          	movb   $0x0,-0x30(%ebp)
  1009a7:	c7 45 cc 0a 00 00 00 	movl   $0xa,-0x34(%ebp)
  1009ae:	8b 45 08             	mov    0x8(%ebp),%eax
  1009b1:	b9 0a 00 00 00       	mov    $0xa,%ecx
  1009b6:	31 d2                	xor    %edx,%edx
  1009b8:	f7 f1                	div    %ecx
  1009ba:	89 d0                	mov    %edx,%eax
  1009bc:	83 c0 30             	add    $0x30,%eax
  1009bf:	88 c3                	mov    %al,%bl
  1009c1:	8b 45 cc             	mov    -0x34(%ebp),%eax
  1009c4:	88 5c 05 f3          	mov    %bl,-0xd(%ebp,%eax,1)
  1009c8:	ff 4d cc             	decl   -0x34(%ebp)
  1009cb:	b9 0a 00 00 00       	mov    $0xa,%ecx
  1009d0:	8b 45 08             	mov    0x8(%ebp),%eax
  1009d3:	31 d2                	xor    %edx,%edx
  1009d5:	f7 f1                	div    %ecx
  1009d7:	89 45 08             	mov    %eax,0x8(%ebp)
  1009da:	83 7d 08 00          	cmpl   $0x0,0x8(%ebp)
  1009de:	77 ce                	ja     1009ae <_ZN5VIDEO4COUTEjh+0x6e>
  1009e0:	c7 45 cc 01 00 00 00 	movl   $0x1,-0x34(%ebp)
  1009e7:	8b 5d cc             	mov    -0x34(%ebp),%ebx
  1009ea:	0f b6 44 1d f3       	movzbl -0xd(%ebp,%ebx,1),%eax
  1009ef:	85 c0                	test   %eax,%eax
  1009f1:	0f 94 c3             	sete   %bl
  1009f4:	d1 eb                	shr    %ebx
  1009f6:	19 db                	sbb    %ebx,%ebx
  1009f8:	0f b6 45 d0          	movzbl -0x30(%ebp),%eax
  1009fc:	85 c0                	test   %eax,%eax
  1009fe:	0f 94 c1             	sete   %cl
  100a01:	d1 e9                	shr    %ecx
  100a03:	19 c9                	sbb    %ecx,%ecx
  100a05:	21 cb                	and    %ecx,%ebx
  100a07:	74 02                	je     100a0b <_ZN5VIDEO4COUTEjh+0xcb>
  100a09:	eb 13                	jmp    100a1e <_ZN5VIDEO4COUTEjh+0xde>
  100a0b:	8b 4d cc             	mov    -0x34(%ebp),%ecx
  100a0e:	ff 74 0d f3          	pushl  -0xd(%ebp,%ecx,1)
  100a12:	e8 49 fe ff ff       	call   100860 <_ZN5VIDEO4PUTCEh>
  100a17:	83 c4 04             	add    $0x4,%esp
  100a1a:	c6 45 d0 01          	movb   $0x1,-0x30(%ebp)
  100a1e:	ff 45 cc             	incl   -0x34(%ebp)
  100a21:	83 7d cc 0a          	cmpl   $0xa,-0x34(%ebp)
  100a25:	76 c0                	jbe    1009e7 <_ZN5VIDEO4COUTEjh+0xa7>
  100a27:	0f b6 4d 0c          	movzbl 0xc(%ebp),%ecx
  100a2b:	83 e1 01             	and    $0x1,%ecx
  100a2e:	74 0a                	je     100a3a <_ZN5VIDEO4COUTEjh+0xfa>
  100a30:	6a 0a                	push   $0xa
  100a32:	e8 29 fe ff ff       	call   100860 <_ZN5VIDEO4PUTCEh>
  100a37:	83 c4 04             	add    $0x4,%esp
  100a3a:	5b                   	pop    %ebx
  100a3b:	89 ec                	mov    %ebp,%esp
  100a3d:	5d                   	pop    %ebp
  100a3e:	c3                   	ret    
  100a3f:	90                   	nop

00100a40 <_ZN5VIDEO4COUTEih>:
  100a40:	55                   	push   %ebp
  100a41:	89 e5                	mov    %esp,%ebp
  100a43:	83 ec 38             	sub    $0x38,%esp
  100a46:	53                   	push   %ebx
  100a47:	0f b6 05 0c 30 10 00 	movzbl 0x10300c,%eax
  100a4e:	83 f8 01             	cmp    $0x1,%eax
  100a51:	75 05                	jne    100a58 <_ZN5VIDEO4COUTEih+0x18>
  100a53:	e9 29 01 00 00       	jmp    100b81 <_ZN5VIDEO4COUTEih+0x141>
  100a58:	c7 45 f4 00 00 00 00 	movl   $0x0,-0xc(%ebp)
  100a5f:	c7 45 f8 00 00 00 00 	movl   $0x0,-0x8(%ebp)
  100a66:	66 c7 45 fc 00 00    	movw   $0x0,-0x4(%ebp)
  100a6c:	8d 45 f4             	lea    -0xc(%ebp),%eax
  100a6f:	48                   	dec    %eax
  100a70:	89 45 d4             	mov    %eax,-0x2c(%ebp)
  100a73:	8d 45 f4             	lea    -0xc(%ebp),%eax
  100a76:	89 45 d8             	mov    %eax,-0x28(%ebp)
  100a79:	c7 45 dc 0a 00 00 00 	movl   $0xa,-0x24(%ebp)
  100a80:	c7 45 e0 01 00 00 00 	movl   $0x1,-0x20(%ebp)
  100a87:	c7 45 e4 01 00 00 00 	movl   $0x1,-0x1c(%ebp)
  100a8e:	c7 45 e8 0a 00 00 00 	movl   $0xa,-0x18(%ebp)
  100a95:	c7 45 ec 01 00 00 00 	movl   $0x1,-0x14(%ebp)
  100a9c:	c7 45 f0 0a 00 00 00 	movl   $0xa,-0x10(%ebp)
  100aa3:	c6 45 d0 00          	movb   $0x0,-0x30(%ebp)
  100aa7:	c7 45 cc 0a 00 00 00 	movl   $0xa,-0x34(%ebp)
  100aae:	c6 45 c8 00          	movb   $0x0,-0x38(%ebp)
  100ab2:	83 7d 08 00          	cmpl   $0x0,0x8(%ebp)
  100ab6:	7d 04                	jge    100abc <_ZN5VIDEO4COUTEih+0x7c>
  100ab8:	c6 45 c8 01          	movb   $0x1,-0x38(%ebp)
  100abc:	0f b6 45 c8          	movzbl -0x38(%ebp),%eax
  100ac0:	83 f8 01             	cmp    $0x1,%eax
  100ac3:	75 1f                	jne    100ae4 <_ZN5VIDEO4COUTEih+0xa4>
  100ac5:	8b 45 08             	mov    0x8(%ebp),%eax
  100ac8:	b9 0a 00 00 00       	mov    $0xa,%ecx
  100acd:	99                   	cltd   
  100ace:	f7 f9                	idiv   %ecx
  100ad0:	89 d0                	mov    %edx,%eax
  100ad2:	bb 30 00 00 00       	mov    $0x30,%ebx
  100ad7:	29 c3                	sub    %eax,%ebx
  100ad9:	88 d8                	mov    %bl,%al
  100adb:	8b 5d cc             	mov    -0x34(%ebp),%ebx
  100ade:	88 44 1d f3          	mov    %al,-0xd(%ebp,%ebx,1)
  100ae2:	eb 19                	jmp    100afd <_ZN5VIDEO4COUTEih+0xbd>
  100ae4:	8b 45 08             	mov    0x8(%ebp),%eax
  100ae7:	b9 0a 00 00 00       	mov    $0xa,%ecx
  100aec:	99                   	cltd   
  100aed:	f7 f9                	idiv   %ecx
  100aef:	89 d0                	mov    %edx,%eax
  100af1:	83 c0 30             	add    $0x30,%eax
  100af4:	88 c3                	mov    %al,%bl
  100af6:	8b 45 cc             	mov    -0x34(%ebp),%eax
  100af9:	88 5c 05 f3          	mov    %bl,-0xd(%ebp,%eax,1)
  100afd:	ff 4d cc             	decl   -0x34(%ebp)
  100b00:	b9 0a 00 00 00       	mov    $0xa,%ecx
  100b05:	8b 45 08             	mov    0x8(%ebp),%eax
  100b08:	99                   	cltd   
  100b09:	f7 f9                	idiv   %ecx
  100b0b:	89 45 08             	mov    %eax,0x8(%ebp)
  100b0e:	83 7d 08 00          	cmpl   $0x0,0x8(%ebp)
  100b12:	75 a8                	jne    100abc <_ZN5VIDEO4COUTEih+0x7c>
  100b14:	0f b6 5d c8          	movzbl -0x38(%ebp),%ebx
  100b18:	83 fb 01             	cmp    $0x1,%ebx
  100b1b:	75 0a                	jne    100b27 <_ZN5VIDEO4COUTEih+0xe7>
  100b1d:	6a 2d                	push   $0x2d
  100b1f:	e8 3c fd ff ff       	call   100860 <_ZN5VIDEO4PUTCEh>
  100b24:	83 c4 04             	add    $0x4,%esp
  100b27:	c7 45 cc 01 00 00 00 	movl   $0x1,-0x34(%ebp)
  100b2e:	8b 5d cc             	mov    -0x34(%ebp),%ebx
  100b31:	0f b6 44 1d f3       	movzbl -0xd(%ebp,%ebx,1),%eax
  100b36:	85 c0                	test   %eax,%eax
  100b38:	0f 94 c3             	sete   %bl
  100b3b:	d1 eb                	shr    %ebx
  100b3d:	19 db                	sbb    %ebx,%ebx
  100b3f:	0f b6 45 d0          	movzbl -0x30(%ebp),%eax
  100b43:	85 c0                	test   %eax,%eax
  100b45:	0f 94 c1             	sete   %cl
  100b48:	d1 e9                	shr    %ecx
  100b4a:	19 c9                	sbb    %ecx,%ecx
  100b4c:	21 cb                	and    %ecx,%ebx
  100b4e:	74 02                	je     100b52 <_ZN5VIDEO4COUTEih+0x112>
  100b50:	eb 13                	jmp    100b65 <_ZN5VIDEO4COUTEih+0x125>
  100b52:	8b 4d cc             	mov    -0x34(%ebp),%ecx
  100b55:	ff 74 0d f3          	pushl  -0xd(%ebp,%ecx,1)
  100b59:	e8 02 fd ff ff       	call   100860 <_ZN5VIDEO4PUTCEh>
  100b5e:	83 c4 04             	add    $0x4,%esp
  100b61:	c6 45 d0 01          	movb   $0x1,-0x30(%ebp)
  100b65:	ff 45 cc             	incl   -0x34(%ebp)
  100b68:	83 7d cc 0a          	cmpl   $0xa,-0x34(%ebp)
  100b6c:	76 c0                	jbe    100b2e <_ZN5VIDEO4COUTEih+0xee>
  100b6e:	0f b6 4d 0c          	movzbl 0xc(%ebp),%ecx
  100b72:	83 e1 01             	and    $0x1,%ecx
  100b75:	74 0a                	je     100b81 <_ZN5VIDEO4COUTEih+0x141>
  100b77:	6a 0a                	push   $0xa
  100b79:	e8 e2 fc ff ff       	call   100860 <_ZN5VIDEO4PUTCEh>
  100b7e:	83 c4 04             	add    $0x4,%esp
  100b81:	5b                   	pop    %ebx
  100b82:	89 ec                	mov    %ebp,%esp
  100b84:	5d                   	pop    %ebp
  100b85:	c3                   	ret    
  100b86:	8d 76 00             	lea    0x0(%esi),%esi
  100b89:	8d bc 27 00 00 00 00 	lea    0x0(%edi,%eiz,1),%edi

00100b90 <_ZN5VIDEO4COUTEth>:
  100b90:	55                   	push   %ebp
  100b91:	89 e5                	mov    %esp,%ebp
  100b93:	83 ec 30             	sub    $0x30,%esp
  100b96:	53                   	push   %ebx
  100b97:	0f b6 05 0c 30 10 00 	movzbl 0x10300c,%eax
  100b9e:	83 f8 01             	cmp    $0x1,%eax
  100ba1:	75 05                	jne    100ba8 <_ZN5VIDEO4COUTEth+0x18>
  100ba3:	e9 e0 00 00 00       	jmp    100c88 <_ZN5VIDEO4COUTEth+0xf8>
  100ba8:	c7 45 f8 00 00 00 00 	movl   $0x0,-0x8(%ebp)
  100baf:	c6 45 fc 00          	movb   $0x0,-0x4(%ebp)
  100bb3:	8d 45 f8             	lea    -0x8(%ebp),%eax
  100bb6:	48                   	dec    %eax
  100bb7:	89 45 d8             	mov    %eax,-0x28(%ebp)
  100bba:	8d 45 f8             	lea    -0x8(%ebp),%eax
  100bbd:	89 45 dc             	mov    %eax,-0x24(%ebp)
  100bc0:	c7 45 e0 05 00 00 00 	movl   $0x5,-0x20(%ebp)
  100bc7:	c7 45 e4 01 00 00 00 	movl   $0x1,-0x1c(%ebp)
  100bce:	c7 45 e8 01 00 00 00 	movl   $0x1,-0x18(%ebp)
  100bd5:	c7 45 ec 05 00 00 00 	movl   $0x5,-0x14(%ebp)
  100bdc:	c7 45 f0 01 00 00 00 	movl   $0x1,-0x10(%ebp)
  100be3:	c7 45 f4 05 00 00 00 	movl   $0x5,-0xc(%ebp)
  100bea:	c6 45 d4 00          	movb   $0x0,-0x2c(%ebp)
  100bee:	c7 45 d0 05 00 00 00 	movl   $0x5,-0x30(%ebp)
  100bf5:	0f b7 45 08          	movzwl 0x8(%ebp),%eax
  100bf9:	b9 0a 00 00 00       	mov    $0xa,%ecx
  100bfe:	99                   	cltd   
  100bff:	f7 f9                	idiv   %ecx
  100c01:	89 d0                	mov    %edx,%eax
  100c03:	83 c0 30             	add    $0x30,%eax
  100c06:	88 c3                	mov    %al,%bl
  100c08:	8b 45 d0             	mov    -0x30(%ebp),%eax
  100c0b:	88 5c 05 f7          	mov    %bl,-0x9(%ebp,%eax,1)
  100c0f:	ff 4d d0             	decl   -0x30(%ebp)
  100c12:	0f b7 5d 08          	movzwl 0x8(%ebp),%ebx
  100c16:	b9 0a 00 00 00       	mov    $0xa,%ecx
  100c1b:	89 d8                	mov    %ebx,%eax
  100c1d:	99                   	cltd   
  100c1e:	f7 f9                	idiv   %ecx
  100c20:	89 c3                	mov    %eax,%ebx
  100c22:	66 89 5d 08          	mov    %bx,0x8(%ebp)
  100c26:	0f b7 5d 08          	movzwl 0x8(%ebp),%ebx
  100c2a:	85 db                	test   %ebx,%ebx
  100c2c:	7f c7                	jg     100bf5 <_ZN5VIDEO4COUTEth+0x65>
  100c2e:	c7 45 d0 01 00 00 00 	movl   $0x1,-0x30(%ebp)
  100c35:	8b 5d d0             	mov    -0x30(%ebp),%ebx
  100c38:	0f b6 44 1d f7       	movzbl -0x9(%ebp,%ebx,1),%eax
  100c3d:	85 c0                	test   %eax,%eax
  100c3f:	0f 94 c3             	sete   %bl
  100c42:	d1 eb                	shr    %ebx
  100c44:	19 db                	sbb    %ebx,%ebx
  100c46:	0f b6 45 d4          	movzbl -0x2c(%ebp),%eax
  100c4a:	85 c0                	test   %eax,%eax
  100c4c:	0f 94 c1             	sete   %cl
  100c4f:	d1 e9                	shr    %ecx
  100c51:	19 c9                	sbb    %ecx,%ecx
  100c53:	21 cb                	and    %ecx,%ebx
  100c55:	74 02                	je     100c59 <_ZN5VIDEO4COUTEth+0xc9>
  100c57:	eb 13                	jmp    100c6c <_ZN5VIDEO4COUTEth+0xdc>
  100c59:	8b 4d d0             	mov    -0x30(%ebp),%ecx
  100c5c:	ff 74 0d f7          	pushl  -0x9(%ebp,%ecx,1)
  100c60:	e8 fb fb ff ff       	call   100860 <_ZN5VIDEO4PUTCEh>
  100c65:	83 c4 04             	add    $0x4,%esp
  100c68:	c6 45 d4 01          	movb   $0x1,-0x2c(%ebp)
  100c6c:	ff 45 d0             	incl   -0x30(%ebp)
  100c6f:	83 7d d0 05          	cmpl   $0x5,-0x30(%ebp)
  100c73:	76 c0                	jbe    100c35 <_ZN5VIDEO4COUTEth+0xa5>
  100c75:	0f b6 4d 0c          	movzbl 0xc(%ebp),%ecx
  100c79:	83 e1 01             	and    $0x1,%ecx
  100c7c:	74 0a                	je     100c88 <_ZN5VIDEO4COUTEth+0xf8>
  100c7e:	6a 0a                	push   $0xa
  100c80:	e8 db fb ff ff       	call   100860 <_ZN5VIDEO4PUTCEh>
  100c85:	83 c4 04             	add    $0x4,%esp
  100c88:	5b                   	pop    %ebx
  100c89:	89 ec                	mov    %ebp,%esp
  100c8b:	5d                   	pop    %ebp
  100c8c:	c3                   	ret    
  100c8d:	8d 76 00             	lea    0x0(%esi),%esi

00100c90 <_ZN5VIDEO4COUTEsh>:
  100c90:	55                   	push   %ebp
  100c91:	89 e5                	mov    %esp,%ebp
  100c93:	83 ec 34             	sub    $0x34,%esp
  100c96:	53                   	push   %ebx
  100c97:	0f b6 05 0c 30 10 00 	movzbl 0x10300c,%eax
  100c9e:	83 f8 01             	cmp    $0x1,%eax
  100ca1:	75 05                	jne    100ca8 <_ZN5VIDEO4COUTEsh+0x18>
  100ca3:	e9 2c 01 00 00       	jmp    100dd4 <_ZN5VIDEO4COUTEsh+0x144>
  100ca8:	c7 45 f8 00 00 00 00 	movl   $0x0,-0x8(%ebp)
  100caf:	c6 45 fc 00          	movb   $0x0,-0x4(%ebp)
  100cb3:	8d 45 f8             	lea    -0x8(%ebp),%eax
  100cb6:	48                   	dec    %eax
  100cb7:	89 45 d8             	mov    %eax,-0x28(%ebp)
  100cba:	8d 45 f8             	lea    -0x8(%ebp),%eax
  100cbd:	89 45 dc             	mov    %eax,-0x24(%ebp)
  100cc0:	c7 45 e0 05 00 00 00 	movl   $0x5,-0x20(%ebp)
  100cc7:	c7 45 e4 01 00 00 00 	movl   $0x1,-0x1c(%ebp)
  100cce:	c7 45 e8 01 00 00 00 	movl   $0x1,-0x18(%ebp)
  100cd5:	c7 45 ec 05 00 00 00 	movl   $0x5,-0x14(%ebp)
  100cdc:	c7 45 f0 01 00 00 00 	movl   $0x1,-0x10(%ebp)
  100ce3:	c7 45 f4 05 00 00 00 	movl   $0x5,-0xc(%ebp)
  100cea:	c6 45 d4 00          	movb   $0x0,-0x2c(%ebp)
  100cee:	c7 45 d0 05 00 00 00 	movl   $0x5,-0x30(%ebp)
  100cf5:	c6 45 cc 00          	movb   $0x0,-0x34(%ebp)
  100cf9:	0f bf 45 08          	movswl 0x8(%ebp),%eax
  100cfd:	85 c0                	test   %eax,%eax
  100cff:	7d 04                	jge    100d05 <_ZN5VIDEO4COUTEsh+0x75>
  100d01:	c6 45 cc 01          	movb   $0x1,-0x34(%ebp)
  100d05:	0f b6 45 cc          	movzbl -0x34(%ebp),%eax
  100d09:	83 f8 01             	cmp    $0x1,%eax
  100d0c:	75 20                	jne    100d2e <_ZN5VIDEO4COUTEsh+0x9e>
  100d0e:	0f bf 45 08          	movswl 0x8(%ebp),%eax
  100d12:	b9 0a 00 00 00       	mov    $0xa,%ecx
  100d17:	99                   	cltd   
  100d18:	f7 f9                	idiv   %ecx
  100d1a:	89 d0                	mov    %edx,%eax
  100d1c:	bb 30 00 00 00       	mov    $0x30,%ebx
  100d21:	29 c3                	sub    %eax,%ebx
  100d23:	88 d8                	mov    %bl,%al
  100d25:	8b 5d d0             	mov    -0x30(%ebp),%ebx
  100d28:	88 44 1d f7          	mov    %al,-0x9(%ebp,%ebx,1)
  100d2c:	eb 1a                	jmp    100d48 <_ZN5VIDEO4COUTEsh+0xb8>
  100d2e:	0f bf 45 08          	movswl 0x8(%ebp),%eax
  100d32:	b9 0a 00 00 00       	mov    $0xa,%ecx
  100d37:	99                   	cltd   
  100d38:	f7 f9                	idiv   %ecx
  100d3a:	89 d0                	mov    %edx,%eax
  100d3c:	83 c0 30             	add    $0x30,%eax
  100d3f:	88 c3                	mov    %al,%bl
  100d41:	8b 45 d0             	mov    -0x30(%ebp),%eax
  100d44:	88 5c 05 f7          	mov    %bl,-0x9(%ebp,%eax,1)
  100d48:	ff 4d d0             	decl   -0x30(%ebp)
  100d4b:	0f bf 5d 08          	movswl 0x8(%ebp),%ebx
  100d4f:	b9 0a 00 00 00       	mov    $0xa,%ecx
  100d54:	89 d8                	mov    %ebx,%eax
  100d56:	99                   	cltd   
  100d57:	f7 f9                	idiv   %ecx
  100d59:	89 c3                	mov    %eax,%ebx
  100d5b:	66 89 5d 08          	mov    %bx,0x8(%ebp)
  100d5f:	0f bf 5d 08          	movswl 0x8(%ebp),%ebx
  100d63:	85 db                	test   %ebx,%ebx
  100d65:	75 9e                	jne    100d05 <_ZN5VIDEO4COUTEsh+0x75>
  100d67:	0f b6 5d cc          	movzbl -0x34(%ebp),%ebx
  100d6b:	83 fb 01             	cmp    $0x1,%ebx
  100d6e:	75 0a                	jne    100d7a <_ZN5VIDEO4COUTEsh+0xea>
  100d70:	6a 2d                	push   $0x2d
  100d72:	e8 e9 fa ff ff       	call   100860 <_ZN5VIDEO4PUTCEh>
  100d77:	83 c4 04             	add    $0x4,%esp
  100d7a:	c7 45 d0 01 00 00 00 	movl   $0x1,-0x30(%ebp)
  100d81:	8b 5d d0             	mov    -0x30(%ebp),%ebx
  100d84:	0f b6 44 1d f7       	movzbl -0x9(%ebp,%ebx,1),%eax
  100d89:	85 c0                	test   %eax,%eax
  100d8b:	0f 94 c3             	sete   %bl
  100d8e:	d1 eb                	shr    %ebx
  100d90:	19 db                	sbb    %ebx,%ebx
  100d92:	0f b6 45 d4          	movzbl -0x2c(%ebp),%eax
  100d96:	85 c0                	test   %eax,%eax
  100d98:	0f 94 c1             	sete   %cl
  100d9b:	d1 e9                	shr    %ecx
  100d9d:	19 c9                	sbb    %ecx,%ecx
  100d9f:	21 cb                	and    %ecx,%ebx
  100da1:	74 02                	je     100da5 <_ZN5VIDEO4COUTEsh+0x115>
  100da3:	eb 13                	jmp    100db8 <_ZN5VIDEO4COUTEsh+0x128>
  100da5:	8b 4d d0             	mov    -0x30(%ebp),%ecx
  100da8:	ff 74 0d f7          	pushl  -0x9(%ebp,%ecx,1)
  100dac:	e8 af fa ff ff       	call   100860 <_ZN5VIDEO4PUTCEh>
  100db1:	83 c4 04             	add    $0x4,%esp
  100db4:	c6 45 d4 01          	movb   $0x1,-0x2c(%ebp)
  100db8:	ff 45 d0             	incl   -0x30(%ebp)
  100dbb:	83 7d d0 05          	cmpl   $0x5,-0x30(%ebp)
  100dbf:	76 c0                	jbe    100d81 <_ZN5VIDEO4COUTEsh+0xf1>
  100dc1:	0f b6 4d 0c          	movzbl 0xc(%ebp),%ecx
  100dc5:	83 e1 01             	and    $0x1,%ecx
  100dc8:	74 0a                	je     100dd4 <_ZN5VIDEO4COUTEsh+0x144>
  100dca:	6a 0a                	push   $0xa
  100dcc:	e8 8f fa ff ff       	call   100860 <_ZN5VIDEO4PUTCEh>
  100dd1:	83 c4 04             	add    $0x4,%esp
  100dd4:	5b                   	pop    %ebx
  100dd5:	89 ec                	mov    %ebp,%esp
  100dd7:	5d                   	pop    %ebp
  100dd8:	c3                   	ret    
  100dd9:	8d b4 26 00 00 00 00 	lea    0x0(%esi,%eiz,1),%esi

00100de0 <_ZN5VIDEO4COUTEhh>:
  100de0:	55                   	push   %ebp
  100de1:	89 e5                	mov    %esp,%ebp
  100de3:	83 ec 2c             	sub    $0x2c,%esp
  100de6:	53                   	push   %ebx
  100de7:	0f b6 05 0c 30 10 00 	movzbl 0x10300c,%eax
  100dee:	83 f8 01             	cmp    $0x1,%eax
  100df1:	75 05                	jne    100df8 <_ZN5VIDEO4COUTEhh+0x18>
  100df3:	e9 e2 00 00 00       	jmp    100eda <_ZN5VIDEO4COUTEhh+0xfa>
  100df8:	66 c7 45 fc 00 00    	movw   $0x0,-0x4(%ebp)
  100dfe:	c6 45 fe 00          	movb   $0x0,-0x2(%ebp)
  100e02:	8d 45 fc             	lea    -0x4(%ebp),%eax
  100e05:	48                   	dec    %eax
  100e06:	89 45 dc             	mov    %eax,-0x24(%ebp)
  100e09:	8d 45 fc             	lea    -0x4(%ebp),%eax
  100e0c:	89 45 e0             	mov    %eax,-0x20(%ebp)
  100e0f:	c7 45 e4 03 00 00 00 	movl   $0x3,-0x1c(%ebp)
  100e16:	c7 45 e8 01 00 00 00 	movl   $0x1,-0x18(%ebp)
  100e1d:	c7 45 ec 01 00 00 00 	movl   $0x1,-0x14(%ebp)
  100e24:	c7 45 f0 03 00 00 00 	movl   $0x3,-0x10(%ebp)
  100e2b:	c7 45 f4 01 00 00 00 	movl   $0x1,-0xc(%ebp)
  100e32:	c7 45 f8 03 00 00 00 	movl   $0x3,-0x8(%ebp)
  100e39:	c6 45 d8 00          	movb   $0x0,-0x28(%ebp)
  100e3d:	c7 45 d4 03 00 00 00 	movl   $0x3,-0x2c(%ebp)
  100e44:	0f b6 45 08          	movzbl 0x8(%ebp),%eax
  100e48:	b9 0a 00 00 00       	mov    $0xa,%ecx
  100e4d:	31 d2                	xor    %edx,%edx
  100e4f:	f7 f1                	div    %ecx
  100e51:	89 d0                	mov    %edx,%eax
  100e53:	83 c0 30             	add    $0x30,%eax
  100e56:	88 c3                	mov    %al,%bl
  100e58:	8b 45 d4             	mov    -0x2c(%ebp),%eax
  100e5b:	88 5c 05 fb          	mov    %bl,-0x5(%ebp,%eax,1)
  100e5f:	ff 4d d4             	decl   -0x2c(%ebp)
  100e62:	0f b6 5d 08          	movzbl 0x8(%ebp),%ebx
  100e66:	b9 0a 00 00 00       	mov    $0xa,%ecx
  100e6b:	89 d8                	mov    %ebx,%eax
  100e6d:	31 d2                	xor    %edx,%edx
  100e6f:	f7 f1                	div    %ecx
  100e71:	89 c3                	mov    %eax,%ebx
  100e73:	88 d8                	mov    %bl,%al
  100e75:	88 45 08             	mov    %al,0x8(%ebp)
  100e78:	0f b6 45 08          	movzbl 0x8(%ebp),%eax
  100e7c:	85 c0                	test   %eax,%eax
  100e7e:	77 c4                	ja     100e44 <_ZN5VIDEO4COUTEhh+0x64>
  100e80:	c7 45 d4 01 00 00 00 	movl   $0x1,-0x2c(%ebp)
  100e87:	8b 45 d4             	mov    -0x2c(%ebp),%eax
  100e8a:	0f b6 5c 05 fb       	movzbl -0x5(%ebp,%eax,1),%ebx
  100e8f:	85 db                	test   %ebx,%ebx
  100e91:	0f 94 c0             	sete   %al
  100e94:	d1 e8                	shr    %eax
  100e96:	19 c0                	sbb    %eax,%eax
  100e98:	0f b6 5d d8          	movzbl -0x28(%ebp),%ebx
  100e9c:	85 db                	test   %ebx,%ebx
  100e9e:	0f 94 c1             	sete   %cl
  100ea1:	d1 e9                	shr    %ecx
  100ea3:	19 c9                	sbb    %ecx,%ecx
  100ea5:	21 c8                	and    %ecx,%eax
  100ea7:	74 02                	je     100eab <_ZN5VIDEO4COUTEhh+0xcb>
  100ea9:	eb 13                	jmp    100ebe <_ZN5VIDEO4COUTEhh+0xde>
  100eab:	8b 4d d4             	mov    -0x2c(%ebp),%ecx
  100eae:	ff 74 0d fb          	pushl  -0x5(%ebp,%ecx,1)
  100eb2:	e8 a9 f9 ff ff       	call   100860 <_ZN5VIDEO4PUTCEh>
  100eb7:	83 c4 04             	add    $0x4,%esp
  100eba:	c6 45 d8 01          	movb   $0x1,-0x28(%ebp)
  100ebe:	ff 45 d4             	incl   -0x2c(%ebp)
  100ec1:	83 7d d4 03          	cmpl   $0x3,-0x2c(%ebp)
  100ec5:	76 c0                	jbe    100e87 <_ZN5VIDEO4COUTEhh+0xa7>
  100ec7:	0f b6 4d 0c          	movzbl 0xc(%ebp),%ecx
  100ecb:	83 e1 01             	and    $0x1,%ecx
  100ece:	74 0a                	je     100eda <_ZN5VIDEO4COUTEhh+0xfa>
  100ed0:	6a 0a                	push   $0xa
  100ed2:	e8 89 f9 ff ff       	call   100860 <_ZN5VIDEO4PUTCEh>
  100ed7:	83 c4 04             	add    $0x4,%esp
  100eda:	5b                   	pop    %ebx
  100edb:	89 ec                	mov    %ebp,%esp
  100edd:	5d                   	pop    %ebp
  100ede:	c3                   	ret    
  100edf:	90                   	nop

00100ee0 <_ZN5VIDEO4COUTEah>:
  100ee0:	55                   	push   %ebp
  100ee1:	89 e5                	mov    %esp,%ebp
  100ee3:	83 ec 30             	sub    $0x30,%esp
  100ee6:	53                   	push   %ebx
  100ee7:	0f b6 05 0c 30 10 00 	movzbl 0x10300c,%eax
  100eee:	83 f8 01             	cmp    $0x1,%eax
  100ef1:	75 05                	jne    100ef8 <_ZN5VIDEO4COUTEah+0x18>
  100ef3:	e9 2c 01 00 00       	jmp    101024 <_ZN5VIDEO4COUTEah+0x144>
  100ef8:	66 c7 45 fc 00 00    	movw   $0x0,-0x4(%ebp)
  100efe:	c6 45 fe 00          	movb   $0x0,-0x2(%ebp)
  100f02:	8d 45 fc             	lea    -0x4(%ebp),%eax
  100f05:	48                   	dec    %eax
  100f06:	89 45 dc             	mov    %eax,-0x24(%ebp)
  100f09:	8d 45 fc             	lea    -0x4(%ebp),%eax
  100f0c:	89 45 e0             	mov    %eax,-0x20(%ebp)
  100f0f:	c7 45 e4 03 00 00 00 	movl   $0x3,-0x1c(%ebp)
  100f16:	c7 45 e8 01 00 00 00 	movl   $0x1,-0x18(%ebp)
  100f1d:	c7 45 ec 01 00 00 00 	movl   $0x1,-0x14(%ebp)
  100f24:	c7 45 f0 03 00 00 00 	movl   $0x3,-0x10(%ebp)
  100f2b:	c7 45 f4 01 00 00 00 	movl   $0x1,-0xc(%ebp)
  100f32:	c7 45 f8 03 00 00 00 	movl   $0x3,-0x8(%ebp)
  100f39:	c6 45 d8 00          	movb   $0x0,-0x28(%ebp)
  100f3d:	c7 45 d4 03 00 00 00 	movl   $0x3,-0x2c(%ebp)
  100f44:	c6 45 d0 00          	movb   $0x0,-0x30(%ebp)
  100f48:	0f be 45 08          	movsbl 0x8(%ebp),%eax
  100f4c:	85 c0                	test   %eax,%eax
  100f4e:	7d 04                	jge    100f54 <_ZN5VIDEO4COUTEah+0x74>
  100f50:	c6 45 d0 01          	movb   $0x1,-0x30(%ebp)
  100f54:	0f b6 45 d0          	movzbl -0x30(%ebp),%eax
  100f58:	83 f8 01             	cmp    $0x1,%eax
  100f5b:	75 20                	jne    100f7d <_ZN5VIDEO4COUTEah+0x9d>
  100f5d:	0f be 45 08          	movsbl 0x8(%ebp),%eax
  100f61:	b9 0a 00 00 00       	mov    $0xa,%ecx
  100f66:	99                   	cltd   
  100f67:	f7 f9                	idiv   %ecx
  100f69:	89 d0                	mov    %edx,%eax
  100f6b:	bb 30 00 00 00       	mov    $0x30,%ebx
  100f70:	29 c3                	sub    %eax,%ebx
  100f72:	88 d8                	mov    %bl,%al
  100f74:	8b 5d d4             	mov    -0x2c(%ebp),%ebx
  100f77:	88 44 1d fb          	mov    %al,-0x5(%ebp,%ebx,1)
  100f7b:	eb 1a                	jmp    100f97 <_ZN5VIDEO4COUTEah+0xb7>
  100f7d:	0f be 45 08          	movsbl 0x8(%ebp),%eax
  100f81:	b9 0a 00 00 00       	mov    $0xa,%ecx
  100f86:	99                   	cltd   
  100f87:	f7 f9                	idiv   %ecx
  100f89:	89 d0                	mov    %edx,%eax
  100f8b:	83 c0 30             	add    $0x30,%eax
  100f8e:	88 c3                	mov    %al,%bl
  100f90:	8b 45 d4             	mov    -0x2c(%ebp),%eax
  100f93:	88 5c 05 fb          	mov    %bl,-0x5(%ebp,%eax,1)
  100f97:	ff 4d d4             	decl   -0x2c(%ebp)
  100f9a:	0f be 5d 08          	movsbl 0x8(%ebp),%ebx
  100f9e:	b9 0a 00 00 00       	mov    $0xa,%ecx
  100fa3:	89 d8                	mov    %ebx,%eax
  100fa5:	99                   	cltd   
  100fa6:	f7 f9                	idiv   %ecx
  100fa8:	89 c3                	mov    %eax,%ebx
  100faa:	88 d8                	mov    %bl,%al
  100fac:	88 45 08             	mov    %al,0x8(%ebp)
  100faf:	0f be 45 08          	movsbl 0x8(%ebp),%eax
  100fb3:	85 c0                	test   %eax,%eax
  100fb5:	75 9d                	jne    100f54 <_ZN5VIDEO4COUTEah+0x74>
  100fb7:	0f b6 45 d0          	movzbl -0x30(%ebp),%eax
  100fbb:	83 f8 01             	cmp    $0x1,%eax
  100fbe:	75 0a                	jne    100fca <_ZN5VIDEO4COUTEah+0xea>
  100fc0:	6a 2d                	push   $0x2d
  100fc2:	e8 99 f8 ff ff       	call   100860 <_ZN5VIDEO4PUTCEh>
  100fc7:	83 c4 04             	add    $0x4,%esp
  100fca:	c7 45 d4 01 00 00 00 	movl   $0x1,-0x2c(%ebp)
  100fd1:	8b 45 d4             	mov    -0x2c(%ebp),%eax
  100fd4:	0f b6 5c 05 fb       	movzbl -0x5(%ebp,%eax,1),%ebx
  100fd9:	85 db                	test   %ebx,%ebx
  100fdb:	0f 94 c0             	sete   %al
  100fde:	d1 e8                	shr    %eax
  100fe0:	19 c0                	sbb    %eax,%eax
  100fe2:	0f b6 5d d8          	movzbl -0x28(%ebp),%ebx
  100fe6:	85 db                	test   %ebx,%ebx
  100fe8:	0f 94 c1             	sete   %cl
  100feb:	d1 e9                	shr    %ecx
  100fed:	19 c9                	sbb    %ecx,%ecx
  100fef:	21 c8                	and    %ecx,%eax
  100ff1:	74 02                	je     100ff5 <_ZN5VIDEO4COUTEah+0x115>
  100ff3:	eb 13                	jmp    101008 <_ZN5VIDEO4COUTEah+0x128>
  100ff5:	8b 4d d4             	mov    -0x2c(%ebp),%ecx
  100ff8:	ff 74 0d fb          	pushl  -0x5(%ebp,%ecx,1)
  100ffc:	e8 5f f8 ff ff       	call   100860 <_ZN5VIDEO4PUTCEh>
  101001:	83 c4 04             	add    $0x4,%esp
  101004:	c6 45 d8 01          	movb   $0x1,-0x28(%ebp)
  101008:	ff 45 d4             	incl   -0x2c(%ebp)
  10100b:	83 7d d4 03          	cmpl   $0x3,-0x2c(%ebp)
  10100f:	76 c0                	jbe    100fd1 <_ZN5VIDEO4COUTEah+0xf1>
  101011:	0f b6 4d 0c          	movzbl 0xc(%ebp),%ecx
  101015:	83 e1 01             	and    $0x1,%ecx
  101018:	74 0a                	je     101024 <_ZN5VIDEO4COUTEah+0x144>
  10101a:	6a 0a                	push   $0xa
  10101c:	e8 3f f8 ff ff       	call   100860 <_ZN5VIDEO4PUTCEh>
  101021:	83 c4 04             	add    $0x4,%esp
  101024:	5b                   	pop    %ebx
  101025:	89 ec                	mov    %ebp,%esp
  101027:	5d                   	pop    %ebp
  101028:	c3                   	ret    
  101029:	8d b4 26 00 00 00 00 	lea    0x0(%esi,%eiz,1),%esi

00101030 <_ZN5VIDEO5CLEANEv>:
  101030:	55                   	push   %ebp
  101031:	89 e5                	mov    %esp,%ebp
  101033:	83 ec 04             	sub    $0x4,%esp
  101036:	53                   	push   %ebx
  101037:	0f b6 05 0c 30 10 00 	movzbl 0x10300c,%eax
  10103e:	83 f8 01             	cmp    $0x1,%eax
  101041:	75 02                	jne    101045 <_ZN5VIDEO5CLEANEv+0x15>
  101043:	eb 47                	jmp    10108c <_ZN5VIDEO5CLEANEv+0x5c>
  101045:	c7 45 fc 00 00 00 00 	movl   $0x0,-0x4(%ebp)
  10104c:	c7 05 04 30 10 00 00 	movl   $0x0,0x103004
  101053:	00 00 00 
  101056:	c7 45 fc 00 00 00 00 	movl   $0x0,-0x4(%ebp)
  10105d:	8b 45 fc             	mov    -0x4(%ebp),%eax
  101060:	d1 e0                	shl    %eax
  101062:	89 c3                	mov    %eax,%ebx
  101064:	a1 00 30 10 00       	mov    0x103000,%eax
  101069:	01 d8                	add    %ebx,%eax
  10106b:	c6 00 20             	movb   $0x20,(%eax)
  10106e:	8b 45 fc             	mov    -0x4(%ebp),%eax
  101071:	d1 e0                	shl    %eax
  101073:	89 c3                	mov    %eax,%ebx
  101075:	a1 00 30 10 00       	mov    0x103000,%eax
  10107a:	01 d8                	add    %ebx,%eax
  10107c:	c6 40 01 00          	movb   $0x0,0x1(%eax)
  101080:	ff 45 fc             	incl   -0x4(%ebp)
  101083:	81 7d fc d0 07 00 00 	cmpl   $0x7d0,-0x4(%ebp)
  10108a:	76 d1                	jbe    10105d <_ZN5VIDEO5CLEANEv+0x2d>
  10108c:	5b                   	pop    %ebx
  10108d:	89 ec                	mov    %ebp,%esp
  10108f:	5d                   	pop    %ebp
  101090:	c3                   	ret    
  101091:	eb 0d                	jmp    1010a0 <_ZN5VIDEO9SET_COLOREhh>
  101093:	90                   	nop
  101094:	90                   	nop
  101095:	90                   	nop
  101096:	90                   	nop
  101097:	90                   	nop
  101098:	90                   	nop
  101099:	90                   	nop
  10109a:	90                   	nop
  10109b:	90                   	nop
  10109c:	90                   	nop
  10109d:	90                   	nop
  10109e:	90                   	nop
  10109f:	90                   	nop

001010a0 <_ZN5VIDEO9SET_COLOREhh>:
  1010a0:	55                   	push   %ebp
  1010a1:	89 e5                	mov    %esp,%ebp
  1010a3:	53                   	push   %ebx
  1010a4:	0f b6 45 0c          	movzbl 0xc(%ebp),%eax
  1010a8:	c1 e0 04             	shl    $0x4,%eax
  1010ab:	0f b6 5d 08          	movzbl 0x8(%ebp),%ebx
  1010af:	09 d8                	or     %ebx,%eax
  1010b1:	88 c3                	mov    %al,%bl
  1010b3:	88 1d 08 30 10 00    	mov    %bl,0x103008
  1010b9:	5b                   	pop    %ebx
  1010ba:	89 ec                	mov    %ebp,%esp
  1010bc:	5d                   	pop    %ebp
  1010bd:	c3                   	ret    
  1010be:	66 90                	xchg   %ax,%ax

001010c0 <_ZN5VIDEO13REMOVE_CURSOREv>:
  1010c0:	6a 0e                	push   $0xe
  1010c2:	68 d4 03 00 00       	push   $0x3d4
  1010c7:	e8 14 04 00 00       	call   1014e0 <fb_Out>
  1010cc:	83 c4 08             	add    $0x8,%esp
  1010cf:	6a 07                	push   $0x7
  1010d1:	68 d5 03 00 00       	push   $0x3d5
  1010d6:	e8 05 04 00 00       	call   1014e0 <fb_Out>
  1010db:	83 c4 08             	add    $0x8,%esp
  1010de:	6a 0f                	push   $0xf
  1010e0:	68 d4 03 00 00       	push   $0x3d4
  1010e5:	e8 f6 03 00 00       	call   1014e0 <fb_Out>
  1010ea:	83 c4 08             	add    $0x8,%esp
  1010ed:	68 d0 00 00 00       	push   $0xd0
  1010f2:	68 d5 03 00 00       	push   $0x3d5
  1010f7:	e8 e4 03 00 00       	call   1014e0 <fb_Out>
  1010fc:	83 c4 08             	add    $0x8,%esp
  1010ff:	c3                   	ret    

00101100 <_ZN5VIDEO12BLOCK_OUTPUTEv>:
  101100:	c6 05 0c 30 10 00 01 	movb   $0x1,0x10300c
  101107:	c3                   	ret    
  101108:	90                   	nop
  101109:	8d b4 26 00 00 00 00 	lea    0x0(%esi,%eiz,1),%esi

00101110 <_ZN5VIDEO14UNBLOCK_OUTPUTEv>:
  101110:	c6 05 0c 30 10 00 00 	movb   $0x0,0x10300c
  101117:	c3                   	ret    
  101118:	90                   	nop
  101119:	8d b4 26 00 00 00 00 	lea    0x0(%esi,%eiz,1),%esi

00101120 <fb_ctor__video>:
  101120:	c3                   	ret    
	...

00101130 <_ZN3IDT4INITEv>:
  101130:	53                   	push   %ebx
  101131:	56                   	push   %esi
  101132:	57                   	push   %edi
  101133:	68 8e 00 00 00       	push   $0x8e
  101138:	6a 08                	push   $0x8
  10113a:	68 00 21 10 00       	push   $0x102100
  10113f:	6a 00                	push   $0x0
  101141:	e8 2a 03 00 00       	call   101470 <_ZN3IDT9SET_ENTRYEtjth>
  101146:	83 c4 10             	add    $0x10,%esp
  101149:	68 8e 00 00 00       	push   $0x8e
  10114e:	6a 08                	push   $0x8
  101150:	68 09 21 10 00       	push   $0x102109
  101155:	6a 01                	push   $0x1
  101157:	e8 14 03 00 00       	call   101470 <_ZN3IDT9SET_ENTRYEtjth>
  10115c:	83 c4 10             	add    $0x10,%esp
  10115f:	68 8e 00 00 00       	push   $0x8e
  101164:	6a 08                	push   $0x8
  101166:	68 12 21 10 00       	push   $0x102112
  10116b:	6a 02                	push   $0x2
  10116d:	e8 fe 02 00 00       	call   101470 <_ZN3IDT9SET_ENTRYEtjth>
  101172:	83 c4 10             	add    $0x10,%esp
  101175:	68 8e 00 00 00       	push   $0x8e
  10117a:	6a 08                	push   $0x8
  10117c:	68 1b 21 10 00       	push   $0x10211b
  101181:	6a 03                	push   $0x3
  101183:	e8 e8 02 00 00       	call   101470 <_ZN3IDT9SET_ENTRYEtjth>
  101188:	83 c4 10             	add    $0x10,%esp
  10118b:	68 8e 00 00 00       	push   $0x8e
  101190:	6a 08                	push   $0x8
  101192:	68 24 21 10 00       	push   $0x102124
  101197:	6a 04                	push   $0x4
  101199:	e8 d2 02 00 00       	call   101470 <_ZN3IDT9SET_ENTRYEtjth>
  10119e:	83 c4 10             	add    $0x10,%esp
  1011a1:	68 8e 00 00 00       	push   $0x8e
  1011a6:	6a 08                	push   $0x8
  1011a8:	68 2d 21 10 00       	push   $0x10212d
  1011ad:	6a 05                	push   $0x5
  1011af:	e8 bc 02 00 00       	call   101470 <_ZN3IDT9SET_ENTRYEtjth>
  1011b4:	83 c4 10             	add    $0x10,%esp
  1011b7:	68 8e 00 00 00       	push   $0x8e
  1011bc:	6a 08                	push   $0x8
  1011be:	68 36 21 10 00       	push   $0x102136
  1011c3:	6a 06                	push   $0x6
  1011c5:	e8 a6 02 00 00       	call   101470 <_ZN3IDT9SET_ENTRYEtjth>
  1011ca:	83 c4 10             	add    $0x10,%esp
  1011cd:	68 8e 00 00 00       	push   $0x8e
  1011d2:	6a 08                	push   $0x8
  1011d4:	68 3f 21 10 00       	push   $0x10213f
  1011d9:	6a 07                	push   $0x7
  1011db:	e8 90 02 00 00       	call   101470 <_ZN3IDT9SET_ENTRYEtjth>
  1011e0:	83 c4 10             	add    $0x10,%esp
  1011e3:	68 8e 00 00 00       	push   $0x8e
  1011e8:	6a 08                	push   $0x8
  1011ea:	68 48 21 10 00       	push   $0x102148
  1011ef:	6a 08                	push   $0x8
  1011f1:	e8 7a 02 00 00       	call   101470 <_ZN3IDT9SET_ENTRYEtjth>
  1011f6:	83 c4 10             	add    $0x10,%esp
  1011f9:	68 8e 00 00 00       	push   $0x8e
  1011fe:	6a 08                	push   $0x8
  101200:	68 4f 21 10 00       	push   $0x10214f
  101205:	6a 09                	push   $0x9
  101207:	e8 64 02 00 00       	call   101470 <_ZN3IDT9SET_ENTRYEtjth>
  10120c:	83 c4 10             	add    $0x10,%esp
  10120f:	68 8e 00 00 00       	push   $0x8e
  101214:	6a 08                	push   $0x8
  101216:	68 58 21 10 00       	push   $0x102158
  10121b:	6a 0a                	push   $0xa
  10121d:	e8 4e 02 00 00       	call   101470 <_ZN3IDT9SET_ENTRYEtjth>
  101222:	83 c4 10             	add    $0x10,%esp
  101225:	68 8e 00 00 00       	push   $0x8e
  10122a:	6a 08                	push   $0x8
  10122c:	68 5f 21 10 00       	push   $0x10215f
  101231:	6a 0b                	push   $0xb
  101233:	e8 38 02 00 00       	call   101470 <_ZN3IDT9SET_ENTRYEtjth>
  101238:	83 c4 10             	add    $0x10,%esp
  10123b:	68 8e 00 00 00       	push   $0x8e
  101240:	6a 08                	push   $0x8
  101242:	68 66 21 10 00       	push   $0x102166
  101247:	6a 0c                	push   $0xc
  101249:	e8 22 02 00 00       	call   101470 <_ZN3IDT9SET_ENTRYEtjth>
  10124e:	83 c4 10             	add    $0x10,%esp
  101251:	68 8e 00 00 00       	push   $0x8e
  101256:	6a 08                	push   $0x8
  101258:	68 6d 21 10 00       	push   $0x10216d
  10125d:	6a 0d                	push   $0xd
  10125f:	e8 0c 02 00 00       	call   101470 <_ZN3IDT9SET_ENTRYEtjth>
  101264:	83 c4 10             	add    $0x10,%esp
  101267:	68 8e 00 00 00       	push   $0x8e
  10126c:	6a 08                	push   $0x8
  10126e:	68 74 21 10 00       	push   $0x102174
  101273:	6a 0e                	push   $0xe
  101275:	e8 f6 01 00 00       	call   101470 <_ZN3IDT9SET_ENTRYEtjth>
  10127a:	83 c4 10             	add    $0x10,%esp
  10127d:	68 8e 00 00 00       	push   $0x8e
  101282:	6a 08                	push   $0x8
  101284:	68 78 21 10 00       	push   $0x102178
  101289:	6a 0f                	push   $0xf
  10128b:	e8 e0 01 00 00       	call   101470 <_ZN3IDT9SET_ENTRYEtjth>
  101290:	83 c4 10             	add    $0x10,%esp
  101293:	68 8e 00 00 00       	push   $0x8e
  101298:	6a 08                	push   $0x8
  10129a:	68 7e 21 10 00       	push   $0x10217e
  10129f:	6a 10                	push   $0x10
  1012a1:	e8 ca 01 00 00       	call   101470 <_ZN3IDT9SET_ENTRYEtjth>
  1012a6:	83 c4 10             	add    $0x10,%esp
  1012a9:	68 8e 00 00 00       	push   $0x8e
  1012ae:	6a 08                	push   $0x8
  1012b0:	68 84 21 10 00       	push   $0x102184
  1012b5:	6a 11                	push   $0x11
  1012b7:	e8 b4 01 00 00       	call   101470 <_ZN3IDT9SET_ENTRYEtjth>
  1012bc:	83 c4 10             	add    $0x10,%esp
  1012bf:	68 8e 00 00 00       	push   $0x8e
  1012c4:	6a 08                	push   $0x8
  1012c6:	68 88 21 10 00       	push   $0x102188
  1012cb:	6a 12                	push   $0x12
  1012cd:	e8 9e 01 00 00       	call   101470 <_ZN3IDT9SET_ENTRYEtjth>
  1012d2:	83 c4 10             	add    $0x10,%esp
  1012d5:	68 8e 00 00 00       	push   $0x8e
  1012da:	6a 08                	push   $0x8
  1012dc:	68 8e 21 10 00       	push   $0x10218e
  1012e1:	6a 20                	push   $0x20
  1012e3:	e8 88 01 00 00       	call   101470 <_ZN3IDT9SET_ENTRYEtjth>
  1012e8:	83 c4 10             	add    $0x10,%esp
  1012eb:	68 8e 00 00 00       	push   $0x8e
  1012f0:	6a 08                	push   $0x8
  1012f2:	68 94 21 10 00       	push   $0x102194
  1012f7:	6a 21                	push   $0x21
  1012f9:	e8 72 01 00 00       	call   101470 <_ZN3IDT9SET_ENTRYEtjth>
  1012fe:	83 c4 10             	add    $0x10,%esp
  101301:	68 8e 00 00 00       	push   $0x8e
  101306:	6a 08                	push   $0x8
  101308:	68 9a 21 10 00       	push   $0x10219a
  10130d:	6a 22                	push   $0x22
  10130f:	e8 5c 01 00 00       	call   101470 <_ZN3IDT9SET_ENTRYEtjth>
  101314:	83 c4 10             	add    $0x10,%esp
  101317:	68 8e 00 00 00       	push   $0x8e
  10131c:	6a 08                	push   $0x8
  10131e:	68 a0 21 10 00       	push   $0x1021a0
  101323:	6a 23                	push   $0x23
  101325:	e8 46 01 00 00       	call   101470 <_ZN3IDT9SET_ENTRYEtjth>
  10132a:	83 c4 10             	add    $0x10,%esp
  10132d:	68 8e 00 00 00       	push   $0x8e
  101332:	6a 08                	push   $0x8
  101334:	68 a6 21 10 00       	push   $0x1021a6
  101339:	6a 24                	push   $0x24
  10133b:	e8 30 01 00 00       	call   101470 <_ZN3IDT9SET_ENTRYEtjth>
  101340:	83 c4 10             	add    $0x10,%esp
  101343:	68 8e 00 00 00       	push   $0x8e
  101348:	6a 08                	push   $0x8
  10134a:	68 ac 21 10 00       	push   $0x1021ac
  10134f:	6a 25                	push   $0x25
  101351:	e8 1a 01 00 00       	call   101470 <_ZN3IDT9SET_ENTRYEtjth>
  101356:	83 c4 10             	add    $0x10,%esp
  101359:	68 8e 00 00 00       	push   $0x8e
  10135e:	6a 08                	push   $0x8
  101360:	68 b2 21 10 00       	push   $0x1021b2
  101365:	6a 26                	push   $0x26
  101367:	e8 04 01 00 00       	call   101470 <_ZN3IDT9SET_ENTRYEtjth>
  10136c:	83 c4 10             	add    $0x10,%esp
  10136f:	68 8e 00 00 00       	push   $0x8e
  101374:	6a 08                	push   $0x8
  101376:	68 b8 21 10 00       	push   $0x1021b8
  10137b:	6a 27                	push   $0x27
  10137d:	e8 ee 00 00 00       	call   101470 <_ZN3IDT9SET_ENTRYEtjth>
  101382:	83 c4 10             	add    $0x10,%esp
  101385:	68 8e 00 00 00       	push   $0x8e
  10138a:	6a 08                	push   $0x8
  10138c:	68 be 21 10 00       	push   $0x1021be
  101391:	6a 28                	push   $0x28
  101393:	e8 d8 00 00 00       	call   101470 <_ZN3IDT9SET_ENTRYEtjth>
  101398:	83 c4 10             	add    $0x10,%esp
  10139b:	68 8e 00 00 00       	push   $0x8e
  1013a0:	6a 08                	push   $0x8
  1013a2:	68 c4 21 10 00       	push   $0x1021c4
  1013a7:	6a 29                	push   $0x29
  1013a9:	e8 c2 00 00 00       	call   101470 <_ZN3IDT9SET_ENTRYEtjth>
  1013ae:	83 c4 10             	add    $0x10,%esp
  1013b1:	68 8e 00 00 00       	push   $0x8e
  1013b6:	6a 08                	push   $0x8
  1013b8:	68 ca 21 10 00       	push   $0x1021ca
  1013bd:	6a 2a                	push   $0x2a
  1013bf:	e8 ac 00 00 00       	call   101470 <_ZN3IDT9SET_ENTRYEtjth>
  1013c4:	83 c4 10             	add    $0x10,%esp
  1013c7:	68 8e 00 00 00       	push   $0x8e
  1013cc:	6a 08                	push   $0x8
  1013ce:	68 d0 21 10 00       	push   $0x1021d0
  1013d3:	6a 2b                	push   $0x2b
  1013d5:	e8 96 00 00 00       	call   101470 <_ZN3IDT9SET_ENTRYEtjth>
  1013da:	83 c4 10             	add    $0x10,%esp
  1013dd:	68 8e 00 00 00       	push   $0x8e
  1013e2:	6a 08                	push   $0x8
  1013e4:	68 d6 21 10 00       	push   $0x1021d6
  1013e9:	6a 2c                	push   $0x2c
  1013eb:	e8 80 00 00 00       	call   101470 <_ZN3IDT9SET_ENTRYEtjth>
  1013f0:	83 c4 10             	add    $0x10,%esp
  1013f3:	68 8e 00 00 00       	push   $0x8e
  1013f8:	6a 08                	push   $0x8
  1013fa:	68 dc 21 10 00       	push   $0x1021dc
  1013ff:	6a 2d                	push   $0x2d
  101401:	e8 6a 00 00 00       	call   101470 <_ZN3IDT9SET_ENTRYEtjth>
  101406:	83 c4 10             	add    $0x10,%esp
  101409:	68 8e 00 00 00       	push   $0x8e
  10140e:	6a 08                	push   $0x8
  101410:	68 e2 21 10 00       	push   $0x1021e2
  101415:	6a 2e                	push   $0x2e
  101417:	e8 54 00 00 00       	call   101470 <_ZN3IDT9SET_ENTRYEtjth>
  10141c:	83 c4 10             	add    $0x10,%esp
  10141f:	68 8e 00 00 00       	push   $0x8e
  101424:	6a 08                	push   $0x8
  101426:	68 e8 21 10 00       	push   $0x1021e8
  10142b:	6a 2f                	push   $0x2f
  10142d:	e8 3e 00 00 00       	call   101470 <_ZN3IDT9SET_ENTRYEtjth>
  101432:	83 c4 10             	add    $0x10,%esp
  101435:	68 ee 00 00 00       	push   $0xee
  10143a:	6a 08                	push   $0x8
  10143c:	68 ee 21 10 00       	push   $0x1021ee
  101441:	6a 62                	push   $0x62
  101443:	e8 28 00 00 00       	call   101470 <_ZN3IDT9SET_ENTRYEtjth>
  101448:	83 c4 10             	add    $0x10,%esp
  10144b:	66 c7 05 c0 50 10 00 	movw   $0x317,0x1050c0
  101452:	17 03 
  101454:	b8 c8 50 10 00       	mov    $0x1050c8,%eax
  101459:	a3 c2 50 10 00       	mov    %eax,0x1050c2
  10145e:	0f 01 1d c0 50 10 00 	lidtl  0x1050c0
  101465:	5f                   	pop    %edi
  101466:	5e                   	pop    %esi
  101467:	5b                   	pop    %ebx
  101468:	c3                   	ret    
  101469:	8d b4 26 00 00 00 00 	lea    0x0(%esi,%eiz,1),%esi

00101470 <_ZN3IDT9SET_ENTRYEtjth>:
  101470:	55                   	push   %ebp
  101471:	89 e5                	mov    %esp,%ebp
  101473:	53                   	push   %ebx
  101474:	8b 45 0c             	mov    0xc(%ebp),%eax
  101477:	25 ff ff 00 00       	and    $0xffff,%eax
  10147c:	0f b7 5d 08          	movzwl 0x8(%ebp),%ebx
  101480:	66 89 04 dd c8 50 10 	mov    %ax,0x1050c8(,%ebx,8)
  101487:	00 
  101488:	8b 45 0c             	mov    0xc(%ebp),%eax
  10148b:	c1 e8 10             	shr    $0x10,%eax
  10148e:	0f b7 5d 08          	movzwl 0x8(%ebp),%ebx
  101492:	66 89 04 dd ce 50 10 	mov    %ax,0x1050ce(,%ebx,8)
  101499:	00 
  10149a:	0f b7 45 08          	movzwl 0x8(%ebp),%eax
  10149e:	66 8b 5d 10          	mov    0x10(%ebp),%bx
  1014a2:	66 89 1c c5 ca 50 10 	mov    %bx,0x1050ca(,%eax,8)
  1014a9:	00 
  1014aa:	0f b7 5d 08          	movzwl 0x8(%ebp),%ebx
  1014ae:	c6 04 dd cc 50 10 00 	movb   $0x0,0x1050cc(,%ebx,8)
  1014b5:	00 
  1014b6:	0f b7 5d 08          	movzwl 0x8(%ebp),%ebx
  1014ba:	8a 45 14             	mov    0x14(%ebp),%al
  1014bd:	88 04 dd cd 50 10 00 	mov    %al,0x1050cd(,%ebx,8)
  1014c4:	5b                   	pop    %ebx
  1014c5:	89 ec                	mov    %ebp,%esp
  1014c7:	5d                   	pop    %ebp
  1014c8:	c3                   	ret    
  1014c9:	8d b4 26 00 00 00 00 	lea    0x0(%esi,%eiz,1),%esi

001014d0 <fb_ctor__idt>:
  1014d0:	c3                   	ret    
	...

001014e0 <fb_Out>:
  1014e0:	55                   	push   %ebp
  1014e1:	89 e5                	mov    %esp,%ebp
  1014e3:	53                   	push   %ebx
  1014e4:	56                   	push   %esi
  1014e5:	57                   	push   %edi
  1014e6:	66 8b 55 08          	mov    0x8(%ebp),%dx
  1014ea:	8a 45 0c             	mov    0xc(%ebp),%al
  1014ed:	ee                   	out    %al,(%dx)
  1014ee:	5f                   	pop    %edi
  1014ef:	5e                   	pop    %esi
  1014f0:	5b                   	pop    %ebx
  1014f1:	89 ec                	mov    %ebp,%esp
  1014f3:	5d                   	pop    %ebp
  1014f4:	c3                   	ret    
  1014f5:	8d 74 26 00          	lea    0x0(%esi,%eiz,1),%esi
  1014f9:	8d bc 27 00 00 00 00 	lea    0x0(%edi,%eiz,1),%edi

00101500 <fb_In>:
  101500:	55                   	push   %ebp
  101501:	89 e5                	mov    %esp,%ebp
  101503:	83 ec 04             	sub    $0x4,%esp
  101506:	53                   	push   %ebx
  101507:	56                   	push   %esi
  101508:	57                   	push   %edi
  101509:	c6 45 fc 00          	movb   $0x0,-0x4(%ebp)
  10150d:	66 8b 55 08          	mov    0x8(%ebp),%dx
  101511:	ec                   	in     (%dx),%al
  101512:	88 45 fc             	mov    %al,-0x4(%ebp)
  101515:	8a 45 fc             	mov    -0x4(%ebp),%al
  101518:	5f                   	pop    %edi
  101519:	5e                   	pop    %esi
  10151a:	5b                   	pop    %ebx
  10151b:	89 ec                	mov    %ebp,%esp
  10151d:	5d                   	pop    %ebp
  10151e:	c3                   	ret    
	...

00101520 <_ZN3PMM4INITEP14MULTIBOOT_INFO>:
  101520:	55                   	push   %ebp
  101521:	89 e5                	mov    %esp,%ebp
  101523:	83 ec 2c             	sub    $0x2c,%esp
  101526:	53                   	push   %ebx
  101527:	56                   	push   %esi
  101528:	8b 45 08             	mov    0x8(%ebp),%eax
  10152b:	8b 58 30             	mov    0x30(%eax),%ebx
  10152e:	89 5d fc             	mov    %ebx,-0x4(%ebp)
  101531:	8b 5d 08             	mov    0x8(%ebp),%ebx
  101534:	8b 45 08             	mov    0x8(%ebp),%eax
  101537:	8b 4b 30             	mov    0x30(%ebx),%ecx
  10153a:	03 48 2c             	add    0x2c(%eax),%ecx
  10153d:	89 cb                	mov    %ecx,%ebx
  10153f:	89 5d f8             	mov    %ebx,-0x8(%ebp)
  101542:	8b 5d f8             	mov    -0x8(%ebp),%ebx
  101545:	39 5d fc             	cmp    %ebx,-0x4(%ebp)
  101548:	73 66                	jae    1015b0 <_ZN3PMM4INITEP14MULTIBOOT_INFO+0x90>
  10154a:	a1 14 30 10 00       	mov    0x103014,%eax
  10154f:	bb 00 00 00 00       	mov    $0x0,%ebx
  101554:	8b 4d fc             	mov    -0x4(%ebp),%ecx
  101557:	03 41 0c             	add    0xc(%ecx),%eax
  10155a:	13 59 10             	adc    0x10(%ecx),%ebx
  10155d:	89 c1                	mov    %eax,%ecx
  10155f:	89 0d 14 30 10 00    	mov    %ecx,0x103014
  101565:	8b 4d fc             	mov    -0x4(%ebp),%ecx
  101568:	83 79 14 01          	cmpl   $0x1,0x14(%ecx)
  10156c:	75 3c                	jne    1015aa <_ZN3PMM4INITEP14MULTIBOOT_INFO+0x8a>
  10156e:	8b 4d fc             	mov    -0x4(%ebp),%ecx
  101571:	8b 41 04             	mov    0x4(%ecx),%eax
  101574:	89 45 d8             	mov    %eax,-0x28(%ebp)
  101577:	8b 45 fc             	mov    -0x4(%ebp),%eax
  10157a:	8b 4d fc             	mov    -0x4(%ebp),%ecx
  10157d:	8b 71 0c             	mov    0xc(%ecx),%esi
  101580:	8b 59 10             	mov    0x10(%ecx),%ebx
  101583:	03 70 04             	add    0x4(%eax),%esi
  101586:	13 58 08             	adc    0x8(%eax),%ebx
  101589:	89 f0                	mov    %esi,%eax
  10158b:	89 45 d4             	mov    %eax,-0x2c(%ebp)
  10158e:	8b 45 d4             	mov    -0x2c(%ebp),%eax
  101591:	39 45 d8             	cmp    %eax,-0x28(%ebp)
  101594:	73 14                	jae    1015aa <_ZN3PMM4INITEP14MULTIBOOT_INFO+0x8a>
  101596:	ff 75 d8             	pushl  -0x28(%ebp)
  101599:	e8 a2 01 00 00       	call   101740 <_ZN3PMM4FREEEPv>
  10159e:	83 c4 04             	add    $0x4,%esp
  1015a1:	81 45 d8 00 10 00 00 	addl   $0x1000,-0x28(%ebp)
  1015a8:	eb e4                	jmp    10158e <_ZN3PMM4INITEP14MULTIBOOT_INFO+0x6e>
  1015aa:	83 45 fc 18          	addl   $0x18,-0x4(%ebp)
  1015ae:	eb 92                	jmp    101542 <_ZN3PMM4INITEP14MULTIBOOT_INFO+0x22>
  1015b0:	b8 00 00 10 00       	mov    $0x100000,%eax
  1015b5:	89 45 f4             	mov    %eax,-0xc(%ebp)
  1015b8:	b8 00 60 12 00       	mov    $0x126000,%eax
  1015bd:	89 45 f0             	mov    %eax,-0x10(%ebp)
  1015c0:	8b 45 f0             	mov    -0x10(%ebp),%eax
  1015c3:	39 45 f4             	cmp    %eax,-0xc(%ebp)
  1015c6:	73 14                	jae    1015dc <_ZN3PMM4INITEP14MULTIBOOT_INFO+0xbc>
  1015c8:	ff 75 f4             	pushl  -0xc(%ebp)
  1015cb:	e8 e0 01 00 00       	call   1017b0 <_ZN3PMM9MARK_USEDEPv>
  1015d0:	83 c4 04             	add    $0x4,%esp
  1015d3:	81 45 f4 00 10 00 00 	addl   $0x1000,-0xc(%ebp)
  1015da:	eb e4                	jmp    1015c0 <_ZN3PMM4INITEP14MULTIBOOT_INFO+0xa0>
  1015dc:	8b 45 08             	mov    0x8(%ebp),%eax
  1015df:	89 45 ec             	mov    %eax,-0x14(%ebp)
  1015e2:	8b 45 08             	mov    0x8(%ebp),%eax
  1015e5:	83 c0 78             	add    $0x78,%eax
  1015e8:	89 45 e8             	mov    %eax,-0x18(%ebp)
  1015eb:	8b 45 e8             	mov    -0x18(%ebp),%eax
  1015ee:	39 45 ec             	cmp    %eax,-0x14(%ebp)
  1015f1:	73 14                	jae    101607 <_ZN3PMM4INITEP14MULTIBOOT_INFO+0xe7>
  1015f3:	ff 75 ec             	pushl  -0x14(%ebp)
  1015f6:	e8 b5 01 00 00       	call   1017b0 <_ZN3PMM9MARK_USEDEPv>
  1015fb:	83 c4 04             	add    $0x4,%esp
  1015fe:	81 45 ec 00 10 00 00 	addl   $0x1000,-0x14(%ebp)
  101605:	eb e4                	jmp    1015eb <_ZN3PMM4INITEP14MULTIBOOT_INFO+0xcb>
  101607:	8b 45 08             	mov    0x8(%ebp),%eax
  10160a:	83 78 14 00          	cmpl   $0x0,0x14(%eax)
  10160e:	75 02                	jne    101612 <_ZN3PMM4INITEP14MULTIBOOT_INFO+0xf2>
  101610:	eb 65                	jmp    101677 <_ZN3PMM4INITEP14MULTIBOOT_INFO+0x157>
  101612:	c7 45 e4 00 00 00 00 	movl   $0x0,-0x1c(%ebp)
  101619:	c7 45 e0 00 00 00 00 	movl   $0x0,-0x20(%ebp)
  101620:	8b 45 08             	mov    0x8(%ebp),%eax
  101623:	8b 70 18             	mov    0x18(%eax),%esi
  101626:	89 75 dc             	mov    %esi,-0x24(%ebp)
  101629:	c7 45 d8 01 00 00 00 	movl   $0x1,-0x28(%ebp)
  101630:	8b 75 08             	mov    0x8(%ebp),%esi
  101633:	8b 46 14             	mov    0x14(%esi),%eax
  101636:	89 45 d4             	mov    %eax,-0x2c(%ebp)
  101639:	eb 34                	jmp    10166f <_ZN3PMM4INITEP14MULTIBOOT_INFO+0x14f>
  10163b:	8b 45 dc             	mov    -0x24(%ebp),%eax
  10163e:	8b 30                	mov    (%eax),%esi
  101640:	89 75 e4             	mov    %esi,-0x1c(%ebp)
  101643:	8b 75 dc             	mov    -0x24(%ebp),%esi
  101646:	8b 46 04             	mov    0x4(%esi),%eax
  101649:	89 45 e0             	mov    %eax,-0x20(%ebp)
  10164c:	8b 45 e0             	mov    -0x20(%ebp),%eax
  10164f:	39 45 e4             	cmp    %eax,-0x1c(%ebp)
  101652:	73 14                	jae    101668 <_ZN3PMM4INITEP14MULTIBOOT_INFO+0x148>
  101654:	ff 75 e4             	pushl  -0x1c(%ebp)
  101657:	e8 54 01 00 00       	call   1017b0 <_ZN3PMM9MARK_USEDEPv>
  10165c:	83 c4 04             	add    $0x4,%esp
  10165f:	81 45 e4 00 10 00 00 	addl   $0x1000,-0x1c(%ebp)
  101666:	eb e4                	jmp    10164c <_ZN3PMM4INITEP14MULTIBOOT_INFO+0x12c>
  101668:	83 45 dc 10          	addl   $0x10,-0x24(%ebp)
  10166c:	ff 45 d8             	incl   -0x28(%ebp)
  10166f:	8b 45 d4             	mov    -0x2c(%ebp),%eax
  101672:	39 45 d8             	cmp    %eax,-0x28(%ebp)
  101675:	76 c4                	jbe    10163b <_ZN3PMM4INITEP14MULTIBOOT_INFO+0x11b>
  101677:	5e                   	pop    %esi
  101678:	5b                   	pop    %ebx
  101679:	89 ec                	mov    %ebp,%esp
  10167b:	5d                   	pop    %ebp
  10167c:	c3                   	ret    
  10167d:	8d 76 00             	lea    0x0(%esi),%esi

00101680 <_ZN3PMM5ALLOCEv>:
  101680:	55                   	push   %ebp
  101681:	89 e5                	mov    %esp,%ebp
  101683:	83 ec 0c             	sub    $0xc,%esp
  101686:	53                   	push   %ebx
  101687:	c7 45 fc 00 00 00 00 	movl   $0x0,-0x4(%ebp)
  10168e:	c7 45 f8 00 00 00 00 	movl   $0x0,-0x8(%ebp)
  101695:	c7 45 f4 00 00 00 00 	movl   $0x0,-0xc(%ebp)
  10169c:	c7 45 f8 00 00 00 00 	movl   $0x0,-0x8(%ebp)
  1016a3:	8b 45 f8             	mov    -0x8(%ebp),%eax
  1016a6:	83 3c 85 e0 53 10 00 	cmpl   $0x0,0x1053e0(,%eax,4)
  1016ad:	00 
  1016ae:	0f 94 c3             	sete   %bl
  1016b1:	d1 eb                	shr    %ebx
  1016b3:	19 db                	sbb    %ebx,%ebx
  1016b5:	f7 d3                	not    %ebx
  1016b7:	85 db                	test   %ebx,%ebx
  1016b9:	74 62                	je     10171d <_ZN3PMM5ALLOCEv+0x9d>
  1016bb:	c7 45 f4 00 00 00 00 	movl   $0x0,-0xc(%ebp)
  1016c2:	8b 5d f8             	mov    -0x8(%ebp),%ebx
  1016c5:	b8 01 00 00 00       	mov    $0x1,%eax
  1016ca:	8a 4d f4             	mov    -0xc(%ebp),%cl
  1016cd:	d3 e0                	shl    %cl,%eax
  1016cf:	8b 0c 9d e0 53 10 00 	mov    0x1053e0(,%ebx,4),%ecx
  1016d6:	21 c1                	and    %eax,%ecx
  1016d8:	74 3a                	je     101714 <_ZN3PMM5ALLOCEv+0x94>
  1016da:	8b 45 f8             	mov    -0x8(%ebp),%eax
  1016dd:	b9 01 00 00 00       	mov    $0x1,%ecx
  1016e2:	51                   	push   %ecx
  1016e3:	8a 4d f4             	mov    -0xc(%ebp),%cl
  1016e6:	87 04 24             	xchg   %eax,(%esp)
  1016e9:	d3 e0                	shl    %cl,%eax
  1016eb:	89 c1                	mov    %eax,%ecx
  1016ed:	58                   	pop    %eax
  1016ee:	f7 d1                	not    %ecx
  1016f0:	21 0c 85 e0 53 10 00 	and    %ecx,0x1053e0(,%eax,4)
  1016f7:	81 05 10 30 10 00 00 	addl   $0xfffff000,0x103010
  1016fe:	f0 ff ff 
  101701:	8b 4d f8             	mov    -0x8(%ebp),%ecx
  101704:	c1 e1 05             	shl    $0x5,%ecx
  101707:	03 4d f4             	add    -0xc(%ebp),%ecx
  10170a:	c1 e1 0c             	shl    $0xc,%ecx
  10170d:	89 c8                	mov    %ecx,%eax
  10170f:	89 45 fc             	mov    %eax,-0x4(%ebp)
  101712:	eb 20                	jmp    101734 <_ZN3PMM5ALLOCEv+0xb4>
  101714:	ff 45 f4             	incl   -0xc(%ebp)
  101717:	83 7d f4 1f          	cmpl   $0x1f,-0xc(%ebp)
  10171b:	76 a5                	jbe    1016c2 <_ZN3PMM5ALLOCEv+0x42>
  10171d:	ff 45 f8             	incl   -0x8(%ebp)
  101720:	81 7d f8 ff 7f 00 00 	cmpl   $0x7fff,-0x8(%ebp)
  101727:	0f 86 76 ff ff ff    	jbe    1016a3 <_ZN3PMM5ALLOCEv+0x23>
  10172d:	c7 45 fc 00 00 00 00 	movl   $0x0,-0x4(%ebp)
  101734:	8b 45 fc             	mov    -0x4(%ebp),%eax
  101737:	5b                   	pop    %ebx
  101738:	89 ec                	mov    %ebp,%esp
  10173a:	5d                   	pop    %ebp
  10173b:	c3                   	ret    
  10173c:	8d 74 26 00          	lea    0x0(%esi,%eiz,1),%esi

00101740 <_ZN3PMM4FREEEPv>:
  101740:	55                   	push   %ebp
  101741:	89 e5                	mov    %esp,%ebp
  101743:	83 ec 04             	sub    $0x4,%esp
  101746:	53                   	push   %ebx
  101747:	6a 00                	push   $0x0
  101749:	ff 75 08             	pushl  0x8(%ebp)
  10174c:	df 2c 24             	fildll (%esp)
  10174f:	83 c4 08             	add    $0x8,%esp
  101752:	dc 35 48 40 10 00    	fdivl  0x104048
  101758:	83 ec 08             	sub    $0x8,%esp
  10175b:	df 3c 24             	fistpll (%esp)
  10175e:	8f 45 fc             	popl   -0x4(%ebp)
  101761:	83 c4 04             	add    $0x4,%esp
  101764:	6a 00                	push   $0x0
  101766:	ff 75 fc             	pushl  -0x4(%ebp)
  101769:	df 2c 24             	fildll (%esp)
  10176c:	83 c4 08             	add    $0x8,%esp
  10176f:	dc 35 50 40 10 00    	fdivl  0x104050
  101775:	83 ec 04             	sub    $0x4,%esp
  101778:	db 1c 24             	fistpl (%esp)
  10177b:	58                   	pop    %eax
  10177c:	8b 5d fc             	mov    -0x4(%ebp),%ebx
  10177f:	83 e3 1f             	and    $0x1f,%ebx
  101782:	b9 01 00 00 00       	mov    $0x1,%ecx
  101787:	51                   	push   %ecx
  101788:	89 d9                	mov    %ebx,%ecx
  10178a:	87 04 24             	xchg   %eax,(%esp)
  10178d:	d3 e0                	shl    %cl,%eax
  10178f:	89 c1                	mov    %eax,%ecx
  101791:	58                   	pop    %eax
  101792:	09 0c 85 e0 53 10 00 	or     %ecx,0x1053e0(,%eax,4)
  101799:	81 05 10 30 10 00 00 	addl   $0x1000,0x103010
  1017a0:	10 00 00 
  1017a3:	5b                   	pop    %ebx
  1017a4:	89 ec                	mov    %ebp,%esp
  1017a6:	5d                   	pop    %ebp
  1017a7:	c3                   	ret    
  1017a8:	90                   	nop
  1017a9:	8d b4 26 00 00 00 00 	lea    0x0(%esi,%eiz,1),%esi

001017b0 <_ZN3PMM9MARK_USEDEPv>:
  1017b0:	55                   	push   %ebp
  1017b1:	89 e5                	mov    %esp,%ebp
  1017b3:	83 ec 04             	sub    $0x4,%esp
  1017b6:	53                   	push   %ebx
  1017b7:	6a 00                	push   $0x0
  1017b9:	ff 75 08             	pushl  0x8(%ebp)
  1017bc:	df 2c 24             	fildll (%esp)
  1017bf:	83 c4 08             	add    $0x8,%esp
  1017c2:	dc 35 48 40 10 00    	fdivl  0x104048
  1017c8:	83 ec 08             	sub    $0x8,%esp
  1017cb:	df 3c 24             	fistpll (%esp)
  1017ce:	8f 45 fc             	popl   -0x4(%ebp)
  1017d1:	83 c4 04             	add    $0x4,%esp
  1017d4:	6a 00                	push   $0x0
  1017d6:	ff 75 fc             	pushl  -0x4(%ebp)
  1017d9:	df 2c 24             	fildll (%esp)
  1017dc:	83 c4 08             	add    $0x8,%esp
  1017df:	dc 35 50 40 10 00    	fdivl  0x104050
  1017e5:	83 ec 04             	sub    $0x4,%esp
  1017e8:	db 1c 24             	fistpl (%esp)
  1017eb:	58                   	pop    %eax
  1017ec:	8b 5d fc             	mov    -0x4(%ebp),%ebx
  1017ef:	83 e3 1f             	and    $0x1f,%ebx
  1017f2:	b9 01 00 00 00       	mov    $0x1,%ecx
  1017f7:	51                   	push   %ecx
  1017f8:	89 d9                	mov    %ebx,%ecx
  1017fa:	87 04 24             	xchg   %eax,(%esp)
  1017fd:	d3 e0                	shl    %cl,%eax
  1017ff:	89 c1                	mov    %eax,%ecx
  101801:	58                   	pop    %eax
  101802:	f7 d1                	not    %ecx
  101804:	21 0c 85 e0 53 10 00 	and    %ecx,0x1053e0(,%eax,4)
  10180b:	81 05 10 30 10 00 00 	addl   $0xfffff000,0x103010
  101812:	f0 ff ff 
  101815:	5b                   	pop    %ebx
  101816:	89 ec                	mov    %ebp,%esp
  101818:	5d                   	pop    %ebp
  101819:	c3                   	ret    
  10181a:	8d b6 00 00 00 00    	lea    0x0(%esi),%esi

00101820 <_ZN3PMM5CLEANEPj>:
  101820:	55                   	push   %ebp
  101821:	89 e5                	mov    %esp,%ebp
  101823:	83 ec 04             	sub    $0x4,%esp
  101826:	53                   	push   %ebx
  101827:	66 c7 45 fc 00 00    	movw   $0x0,-0x4(%ebp)
  10182d:	0f b7 45 fc          	movzwl -0x4(%ebp),%eax
  101831:	c1 e0 02             	shl    $0x2,%eax
  101834:	8b 5d 08             	mov    0x8(%ebp),%ebx
  101837:	01 c3                	add    %eax,%ebx
  101839:	c7 03 00 00 00 00    	movl   $0x0,(%ebx)
  10183f:	66 ff 45 fc          	incw   -0x4(%ebp)
  101843:	66 81 7d fc ff 03    	cmpw   $0x3ff,-0x4(%ebp)
  101849:	76 e2                	jbe    10182d <_ZN3PMM5CLEANEPj+0xd>
  10184b:	5b                   	pop    %ebx
  10184c:	89 ec                	mov    %ebp,%esp
  10184e:	5d                   	pop    %ebp
  10184f:	c3                   	ret    

00101850 <_ZN3PMM9GET_TOTALEv>:
  101850:	55                   	push   %ebp
  101851:	89 e5                	mov    %esp,%ebp
  101853:	83 ec 04             	sub    $0x4,%esp
  101856:	c7 45 fc 00 00 00 00 	movl   $0x0,-0x4(%ebp)
  10185d:	a1 14 30 10 00       	mov    0x103014,%eax
  101862:	89 45 fc             	mov    %eax,-0x4(%ebp)
  101865:	8b 45 fc             	mov    -0x4(%ebp),%eax
  101868:	89 ec                	mov    %ebp,%esp
  10186a:	5d                   	pop    %ebp
  10186b:	c3                   	ret    
  10186c:	8d 74 26 00          	lea    0x0(%esi,%eiz,1),%esi

00101870 <_ZN3PMM8GET_FREEEv>:
  101870:	55                   	push   %ebp
  101871:	89 e5                	mov    %esp,%ebp
  101873:	83 ec 04             	sub    $0x4,%esp
  101876:	c7 45 fc 00 00 00 00 	movl   $0x0,-0x4(%ebp)
  10187d:	a1 10 30 10 00       	mov    0x103010,%eax
  101882:	89 45 fc             	mov    %eax,-0x4(%ebp)
  101885:	8b 45 fc             	mov    -0x4(%ebp),%eax
  101888:	89 ec                	mov    %ebp,%esp
  10188a:	5d                   	pop    %ebp
  10188b:	c3                   	ret    
  10188c:	8d 74 26 00          	lea    0x0(%esi,%eiz,1),%esi

00101890 <fb_ctor__pmm>:
  101890:	c3                   	ret    
	...

001018a0 <_ZN5TASKS6TASK_AEv>:
  1018a0:	55                   	push   %ebp
  1018a1:	89 e5                	mov    %esp,%ebp
  1018a3:	83 ec 04             	sub    $0x4,%esp
  1018a6:	53                   	push   %ebx
  1018a7:	56                   	push   %esi
  1018a8:	57                   	push   %edi
  1018a9:	c7 45 fc 00 00 00 00 	movl   $0x0,-0x4(%ebp)
  1018b0:	b8 9a 02 00 00       	mov    $0x29a,%eax
  1018b5:	cd 62                	int    $0x62
  1018b7:	eb f7                	jmp    1018b0 <_ZN5TASKS6TASK_AEv+0x10>
  1018b9:	5f                   	pop    %edi
  1018ba:	5e                   	pop    %esi
  1018bb:	5b                   	pop    %ebx
  1018bc:	89 ec                	mov    %ebp,%esp
  1018be:	5d                   	pop    %ebp
  1018bf:	c3                   	ret    

001018c0 <_ZN5TASKS6TASK_BEv>:
  1018c0:	55                   	push   %ebp
  1018c1:	89 e5                	mov    %esp,%ebp
  1018c3:	83 ec 04             	sub    $0x4,%esp
  1018c6:	53                   	push   %ebx
  1018c7:	56                   	push   %esi
  1018c8:	57                   	push   %edi
  1018c9:	c7 45 fc 00 00 00 00 	movl   $0x0,-0x4(%ebp)
  1018d0:	b8 9a 02 00 00       	mov    $0x29a,%eax
  1018d5:	cd 62                	int    $0x62
  1018d7:	eb f7                	jmp    1018d0 <_ZN5TASKS6TASK_BEv+0x10>
  1018d9:	5f                   	pop    %edi
  1018da:	5e                   	pop    %esi
  1018db:	5b                   	pop    %ebx
  1018dc:	89 ec                	mov    %ebp,%esp
  1018de:	5d                   	pop    %ebp
  1018df:	c3                   	ret    

001018e0 <_ZN5TASKS12GENERATE_PIDEv>:
  1018e0:	55                   	push   %ebp
  1018e1:	89 e5                	mov    %esp,%ebp
  1018e3:	83 ec 04             	sub    $0x4,%esp
  1018e6:	c7 45 fc 00 00 00 00 	movl   $0x0,-0x4(%ebp)
  1018ed:	ff 05 18 30 10 00    	incl   0x103018
  1018f3:	a1 18 30 10 00       	mov    0x103018,%eax
  1018f8:	48                   	dec    %eax
  1018f9:	89 45 fc             	mov    %eax,-0x4(%ebp)
  1018fc:	8b 45 fc             	mov    -0x4(%ebp),%eax
  1018ff:	89 ec                	mov    %ebp,%esp
  101901:	5d                   	pop    %ebp
  101902:	c3                   	ret    
  101903:	8d b6 00 00 00 00    	lea    0x0(%esi),%esi
  101909:	8d bc 27 00 00 00 00 	lea    0x0(%edi,%eiz,1),%edi

00101910 <_ZN5TASKS9INIT_TASKEPv>:
  101910:	55                   	push   %ebp
  101911:	89 e5                	mov    %esp,%ebp
  101913:	83 ec 1c             	sub    $0x1c,%esp
  101916:	53                   	push   %ebx
  101917:	c7 45 fc 00 00 00 00 	movl   $0x0,-0x4(%ebp)
  10191e:	e8 5d fd ff ff       	call   101680 <_ZN3PMM5ALLOCEv>
  101923:	89 45 f8             	mov    %eax,-0x8(%ebp)
  101926:	e8 55 fd ff ff       	call   101680 <_ZN3PMM5ALLOCEv>
  10192b:	89 45 f4             	mov    %eax,-0xc(%ebp)
  10192e:	e8 4d fd ff ff       	call   101680 <_ZN3PMM5ALLOCEv>
  101933:	89 45 f0             	mov    %eax,-0x10(%ebp)
  101936:	8b 45 f8             	mov    -0x8(%ebp),%eax
  101939:	05 c8 0f 00 00       	add    $0xfc8,%eax
  10193e:	89 45 ec             	mov    %eax,-0x14(%ebp)
  101941:	8b 45 ec             	mov    -0x14(%ebp),%eax
  101944:	c7 00 00 00 00 00    	movl   $0x0,(%eax)
  10194a:	8b 45 ec             	mov    -0x14(%ebp),%eax
  10194d:	c7 40 04 00 00 00 00 	movl   $0x0,0x4(%eax)
  101954:	8b 45 ec             	mov    -0x14(%ebp),%eax
  101957:	c7 40 08 00 00 00 00 	movl   $0x0,0x8(%eax)
  10195e:	8b 45 ec             	mov    -0x14(%ebp),%eax
  101961:	c7 40 0c 00 00 00 00 	movl   $0x0,0xc(%eax)
  101968:	8b 45 ec             	mov    -0x14(%ebp),%eax
  10196b:	c7 40 10 00 00 00 00 	movl   $0x0,0x10(%eax)
  101972:	8b 45 ec             	mov    -0x14(%ebp),%eax
  101975:	c7 40 14 00 00 00 00 	movl   $0x0,0x14(%eax)
  10197c:	8b 45 ec             	mov    -0x14(%ebp),%eax
  10197f:	c7 40 18 00 00 00 00 	movl   $0x0,0x18(%eax)
  101986:	8b 45 ec             	mov    -0x14(%ebp),%eax
  101989:	8b 5d 08             	mov    0x8(%ebp),%ebx
  10198c:	89 58 24             	mov    %ebx,0x24(%eax)
  10198f:	8b 5d f4             	mov    -0xc(%ebp),%ebx
  101992:	81 c3 00 10 00 00    	add    $0x1000,%ebx
  101998:	8b 45 ec             	mov    -0x14(%ebp),%eax
  10199b:	89 58 30             	mov    %ebx,0x30(%eax)
  10199e:	8b 5d ec             	mov    -0x14(%ebp),%ebx
  1019a1:	c7 43 28 1b 00 00 00 	movl   $0x1b,0x28(%ebx)
  1019a8:	8b 5d ec             	mov    -0x14(%ebp),%ebx
  1019ab:	c7 43 34 23 00 00 00 	movl   $0x23,0x34(%ebx)
  1019b2:	8b 5d ec             	mov    -0x14(%ebp),%ebx
  1019b5:	c7 43 2c 00 02 00 00 	movl   $0x200,0x2c(%ebx)
  1019bc:	8b 5d f0             	mov    -0x10(%ebp),%ebx
  1019bf:	8b 45 ec             	mov    -0x14(%ebp),%eax
  1019c2:	89 43 04             	mov    %eax,0x4(%ebx)
  1019c5:	e8 16 ff ff ff       	call   1018e0 <_ZN5TASKS12GENERATE_PIDEv>
  1019ca:	8b 5d f0             	mov    -0x10(%ebp),%ebx
  1019cd:	89 03                	mov    %eax,(%ebx)
  1019cf:	e8 ac fc ff ff       	call   101680 <_ZN3PMM5ALLOCEv>
  1019d4:	8b 5d f0             	mov    -0x10(%ebp),%ebx
  1019d7:	89 43 08             	mov    %eax,0x8(%ebx)
  1019da:	8b 45 f0             	mov    -0x10(%ebp),%eax
  1019dd:	ff 70 08             	pushl  0x8(%eax)
  1019e0:	e8 3b fe ff ff       	call   101820 <_ZN3PMM5CLEANEPj>
  1019e5:	83 c4 04             	add    $0x4,%esp
  1019e8:	b8 00 00 10 00       	mov    $0x100000,%eax
  1019ed:	89 45 e8             	mov    %eax,-0x18(%ebp)
  1019f0:	b8 00 60 12 00       	mov    $0x126000,%eax
  1019f5:	89 45 e4             	mov    %eax,-0x1c(%ebp)
  1019f8:	8b 45 e4             	mov    -0x1c(%ebp),%eax
  1019fb:	39 45 e8             	cmp    %eax,-0x18(%ebp)
  1019fe:	73 1f                	jae    101a1f <_ZN5TASKS9INIT_TASKEPv+0x10f>
  101a00:	6a 05                	push   $0x5
  101a02:	ff 75 e8             	pushl  -0x18(%ebp)
  101a05:	ff 75 e8             	pushl  -0x18(%ebp)
  101a08:	8b 45 f0             	mov    -0x10(%ebp),%eax
  101a0b:	ff 70 08             	pushl  0x8(%eax)
  101a0e:	e8 7d ea ff ff       	call   100490 <_ZN6PAGING8MAP_PAGEEPjjjj>
  101a13:	83 c4 10             	add    $0x10,%esp
  101a16:	81 45 e8 00 10 00 00 	addl   $0x1000,-0x18(%ebp)
  101a1d:	eb d9                	jmp    1019f8 <_ZN5TASKS9INIT_TASKEPv+0xe8>
  101a1f:	8b 45 f0             	mov    -0x10(%ebp),%eax
  101a22:	8b 1d 1c 30 10 00    	mov    0x10301c,%ebx
  101a28:	89 58 10             	mov    %ebx,0x10(%eax)
  101a2b:	8b 5d f0             	mov    -0x10(%ebp),%ebx
  101a2e:	89 1d 1c 30 10 00    	mov    %ebx,0x10301c
  101a34:	8b 5d f0             	mov    -0x10(%ebp),%ebx
  101a37:	89 5d fc             	mov    %ebx,-0x4(%ebp)
  101a3a:	8b 45 fc             	mov    -0x4(%ebp),%eax
  101a3d:	5b                   	pop    %ebx
  101a3e:	89 ec                	mov    %ebp,%esp
  101a40:	5d                   	pop    %ebp
  101a41:	c3                   	ret    
  101a42:	8d b4 26 00 00 00 00 	lea    0x0(%esi,%eiz,1),%esi
  101a49:	8d bc 27 00 00 00 00 	lea    0x0(%edi,%eiz,1),%edi

00101a50 <_ZN5TASKS17INIT_MULTITASKINGEv>:
  101a50:	55                   	push   %ebp
  101a51:	89 e5                	mov    %esp,%ebp
  101a53:	83 ec 08             	sub    $0x8,%esp
  101a56:	68 c0 18 10 00       	push   $0x1018c0
  101a5b:	e8 b0 fe ff ff       	call   101910 <_ZN5TASKS9INIT_TASKEPv>
  101a60:	83 c4 04             	add    $0x4,%esp
  101a63:	89 45 fc             	mov    %eax,-0x4(%ebp)
  101a66:	68 a0 18 10 00       	push   $0x1018a0
  101a6b:	e8 a0 fe ff ff       	call   101910 <_ZN5TASKS9INIT_TASKEPv>
  101a70:	83 c4 04             	add    $0x4,%esp
  101a73:	89 45 f8             	mov    %eax,-0x8(%ebp)
  101a76:	89 ec                	mov    %ebp,%esp
  101a78:	5d                   	pop    %ebp
  101a79:	c3                   	ret    
  101a7a:	8d b6 00 00 00 00    	lea    0x0(%esi),%esi

00101a80 <_ZN5TASKS8SCHEDULEEP9CPU_STATE>:
  101a80:	55                   	push   %ebp
  101a81:	89 e5                	mov    %esp,%ebp
  101a83:	83 ec 04             	sub    $0x4,%esp
  101a86:	53                   	push   %ebx
  101a87:	c7 45 fc 00 00 00 00 	movl   $0x0,-0x4(%ebp)
  101a8e:	83 3d 20 30 10 00 00 	cmpl   $0x0,0x103020
  101a95:	0f 94 c0             	sete   %al
  101a98:	d1 e8                	shr    %eax
  101a9a:	19 c0                	sbb    %eax,%eax
  101a9c:	f7 d0                	not    %eax
  101a9e:	85 c0                	test   %eax,%eax
  101aa0:	74 0b                	je     101aad <_ZN5TASKS8SCHEDULEEP9CPU_STATE+0x2d>
  101aa2:	a1 20 30 10 00       	mov    0x103020,%eax
  101aa7:	8b 5d 08             	mov    0x8(%ebp),%ebx
  101aaa:	89 58 04             	mov    %ebx,0x4(%eax)
  101aad:	83 3d 20 30 10 00 00 	cmpl   $0x0,0x103020
  101ab4:	75 0e                	jne    101ac4 <_ZN5TASKS8SCHEDULEEP9CPU_STATE+0x44>
  101ab6:	8b 1d 1c 30 10 00    	mov    0x10301c,%ebx
  101abc:	89 1d 20 30 10 00    	mov    %ebx,0x103020
  101ac2:	eb 21                	jmp    101ae5 <_ZN5TASKS8SCHEDULEEP9CPU_STATE+0x65>
  101ac4:	8b 1d 20 30 10 00    	mov    0x103020,%ebx
  101aca:	8b 43 10             	mov    0x10(%ebx),%eax
  101acd:	a3 20 30 10 00       	mov    %eax,0x103020
  101ad2:	83 3d 20 30 10 00 00 	cmpl   $0x0,0x103020
  101ad9:	75 0a                	jne    101ae5 <_ZN5TASKS8SCHEDULEEP9CPU_STATE+0x65>
  101adb:	a1 1c 30 10 00       	mov    0x10301c,%eax
  101ae0:	a3 20 30 10 00       	mov    %eax,0x103020
  101ae5:	a1 20 30 10 00       	mov    0x103020,%eax
  101aea:	8b 58 04             	mov    0x4(%eax),%ebx
  101aed:	89 5d fc             	mov    %ebx,-0x4(%ebp)
  101af0:	8b 45 fc             	mov    -0x4(%ebp),%eax
  101af3:	5b                   	pop    %ebx
  101af4:	89 ec                	mov    %ebp,%esp
  101af6:	5d                   	pop    %ebp
  101af7:	c3                   	ret    
  101af8:	90                   	nop
  101af9:	8d b4 26 00 00 00 00 	lea    0x0(%esi,%eiz,1),%esi

00101b00 <_ZN5TASKS16GET_CURRENT_TASKEv>:
  101b00:	55                   	push   %ebp
  101b01:	89 e5                	mov    %esp,%ebp
  101b03:	83 ec 04             	sub    $0x4,%esp
  101b06:	c7 45 fc 00 00 00 00 	movl   $0x0,-0x4(%ebp)
  101b0d:	a1 20 30 10 00       	mov    0x103020,%eax
  101b12:	89 45 fc             	mov    %eax,-0x4(%ebp)
  101b15:	8b 45 fc             	mov    -0x4(%ebp),%eax
  101b18:	89 ec                	mov    %ebp,%esp
  101b1a:	5d                   	pop    %ebp
  101b1b:	c3                   	ret    
  101b1c:	8d 74 26 00          	lea    0x0(%esi,%eiz,1),%esi

00101b20 <_ZN5TASKS16CHECK_ELF_HEADEREPN5ELF3210ELF32_EHDRE>:
  101b20:	55                   	push   %ebp
  101b21:	89 e5                	mov    %esp,%ebp
  101b23:	83 ec 04             	sub    $0x4,%esp
  101b26:	53                   	push   %ebx
  101b27:	c7 45 fc 00 00 00 00 	movl   $0x0,-0x4(%ebp)
  101b2e:	6a 00                	push   $0x0
  101b30:	68 58 40 10 00       	push   $0x104058
  101b35:	e8 96 ed ff ff       	call   1008d0 <_ZN5VIDEO4COUTERch>
  101b3a:	83 c4 08             	add    $0x8,%esp
  101b3d:	6a 01                	push   $0x1
  101b3f:	8b 45 08             	mov    0x8(%ebp),%eax
  101b42:	ff 30                	pushl  (%eax)
  101b44:	e8 f7 ed ff ff       	call   100940 <_ZN5VIDEO4COUTEjh>
  101b49:	83 c4 08             	add    $0x8,%esp
  101b4c:	8b 45 08             	mov    0x8(%ebp),%eax
  101b4f:	81 38 7f 45 4c 46    	cmpl   $0x464c457f,(%eax)
  101b55:	0f 94 c3             	sete   %bl
  101b58:	d1 eb                	shr    %ebx
  101b5a:	19 db                	sbb    %ebx,%ebx
  101b5c:	f7 d3                	not    %ebx
  101b5e:	85 db                	test   %ebx,%ebx
  101b60:	74 0c                	je     101b6e <_ZN5TASKS16CHECK_ELF_HEADEREPN5ELF3210ELF32_EHDRE+0x4e>
  101b62:	c7 45 fc 02 00 00 00 	movl   $0x2,-0x4(%ebp)
  101b69:	e9 a3 00 00 00       	jmp    101c11 <_ZN5TASKS16CHECK_ELF_HEADEREPN5ELF3210ELF32_EHDRE+0xf1>
  101b6e:	8b 5d 08             	mov    0x8(%ebp),%ebx
  101b71:	66 83 7b 10 02       	cmpw   $0x2,0x10(%ebx)
  101b76:	0f 94 c0             	sete   %al
  101b79:	d1 e8                	shr    %eax
  101b7b:	19 c0                	sbb    %eax,%eax
  101b7d:	f7 d0                	not    %eax
  101b7f:	85 c0                	test   %eax,%eax
  101b81:	74 0c                	je     101b8f <_ZN5TASKS16CHECK_ELF_HEADEREPN5ELF3210ELF32_EHDRE+0x6f>
  101b83:	c7 45 fc 03 00 00 00 	movl   $0x3,-0x4(%ebp)
  101b8a:	e9 82 00 00 00       	jmp    101c11 <_ZN5TASKS16CHECK_ELF_HEADEREPN5ELF3210ELF32_EHDRE+0xf1>
  101b8f:	8b 45 08             	mov    0x8(%ebp),%eax
  101b92:	66 83 78 12 03       	cmpw   $0x3,0x12(%eax)
  101b97:	0f 94 c3             	sete   %bl
  101b9a:	d1 eb                	shr    %ebx
  101b9c:	19 db                	sbb    %ebx,%ebx
  101b9e:	f7 d3                	not    %ebx
  101ba0:	85 db                	test   %ebx,%ebx
  101ba2:	74 09                	je     101bad <_ZN5TASKS16CHECK_ELF_HEADEREPN5ELF3210ELF32_EHDRE+0x8d>
  101ba4:	c7 45 fc 04 00 00 00 	movl   $0x4,-0x4(%ebp)
  101bab:	eb 64                	jmp    101c11 <_ZN5TASKS16CHECK_ELF_HEADEREPN5ELF3210ELF32_EHDRE+0xf1>
  101bad:	8b 5d 08             	mov    0x8(%ebp),%ebx
  101bb0:	0f b6 43 04          	movzbl 0x4(%ebx),%eax
  101bb4:	83 f8 01             	cmp    $0x1,%eax
  101bb7:	0f 94 c3             	sete   %bl
  101bba:	d1 eb                	shr    %ebx
  101bbc:	19 db                	sbb    %ebx,%ebx
  101bbe:	f7 d3                	not    %ebx
  101bc0:	85 db                	test   %ebx,%ebx
  101bc2:	74 09                	je     101bcd <_ZN5TASKS16CHECK_ELF_HEADEREPN5ELF3210ELF32_EHDRE+0xad>
  101bc4:	c7 45 fc 05 00 00 00 	movl   $0x5,-0x4(%ebp)
  101bcb:	eb 44                	jmp    101c11 <_ZN5TASKS16CHECK_ELF_HEADEREPN5ELF3210ELF32_EHDRE+0xf1>
  101bcd:	8b 5d 08             	mov    0x8(%ebp),%ebx
  101bd0:	0f b6 43 05          	movzbl 0x5(%ebx),%eax
  101bd4:	83 f8 01             	cmp    $0x1,%eax
  101bd7:	0f 94 c3             	sete   %bl
  101bda:	d1 eb                	shr    %ebx
  101bdc:	19 db                	sbb    %ebx,%ebx
  101bde:	f7 d3                	not    %ebx
  101be0:	85 db                	test   %ebx,%ebx
  101be2:	74 09                	je     101bed <_ZN5TASKS16CHECK_ELF_HEADEREPN5ELF3210ELF32_EHDRE+0xcd>
  101be4:	c7 45 fc 06 00 00 00 	movl   $0x6,-0x4(%ebp)
  101beb:	eb 24                	jmp    101c11 <_ZN5TASKS16CHECK_ELF_HEADEREPN5ELF3210ELF32_EHDRE+0xf1>
  101bed:	8b 5d 08             	mov    0x8(%ebp),%ebx
  101bf0:	83 7b 14 01          	cmpl   $0x1,0x14(%ebx)
  101bf4:	0f 94 c0             	sete   %al
  101bf7:	d1 e8                	shr    %eax
  101bf9:	19 c0                	sbb    %eax,%eax
  101bfb:	f7 d0                	not    %eax
  101bfd:	85 c0                	test   %eax,%eax
  101bff:	74 09                	je     101c0a <_ZN5TASKS16CHECK_ELF_HEADEREPN5ELF3210ELF32_EHDRE+0xea>
  101c01:	c7 45 fc 07 00 00 00 	movl   $0x7,-0x4(%ebp)
  101c08:	eb 07                	jmp    101c11 <_ZN5TASKS16CHECK_ELF_HEADEREPN5ELF3210ELF32_EHDRE+0xf1>
  101c0a:	c7 45 fc ff ff ff ff 	movl   $0xffffffff,-0x4(%ebp)
  101c11:	8b 45 fc             	mov    -0x4(%ebp),%eax
  101c14:	5b                   	pop    %ebx
  101c15:	89 ec                	mov    %ebp,%esp
  101c17:	5d                   	pop    %ebp
  101c18:	c3                   	ret    
  101c19:	8d b4 26 00 00 00 00 	lea    0x0(%esi,%eiz,1),%esi

00101c20 <_ZN5TASKS10CREATE_ELFEPv>:
  101c20:	55                   	push   %ebp
  101c21:	89 e5                	mov    %esp,%ebp
  101c23:	83 ec 14             	sub    $0x14,%esp
  101c26:	53                   	push   %ebx
  101c27:	c7 45 fc 00 00 00 00 	movl   $0x0,-0x4(%ebp)
  101c2e:	8b 45 08             	mov    0x8(%ebp),%eax
  101c31:	89 45 f8             	mov    %eax,-0x8(%ebp)
  101c34:	ff 75 f8             	pushl  -0x8(%ebp)
  101c37:	e8 e4 fe ff ff       	call   101b20 <_ZN5TASKS16CHECK_ELF_HEADEREPN5ELF3210ELF32_EHDRE>
  101c3c:	83 c4 04             	add    $0x4,%esp
  101c3f:	85 c0                	test   %eax,%eax
  101c41:	7e 2a                	jle    101c6d <_ZN5TASKS10CREATE_ELFEPv+0x4d>
  101c43:	6a 00                	push   $0x0
  101c45:	68 64 40 10 00       	push   $0x104064
  101c4a:	e8 81 ec ff ff       	call   1008d0 <_ZN5VIDEO4COUTERch>
  101c4f:	83 c4 08             	add    $0x8,%esp
  101c52:	6a 01                	push   $0x1
  101c54:	ff 75 f8             	pushl  -0x8(%ebp)
  101c57:	e8 c4 fe ff ff       	call   101b20 <_ZN5TASKS16CHECK_ELF_HEADEREPN5ELF3210ELF32_EHDRE>
  101c5c:	83 c4 04             	add    $0x4,%esp
  101c5f:	50                   	push   %eax
  101c60:	e8 db ed ff ff       	call   100a40 <_ZN5VIDEO4COUTEih>
  101c65:	83 c4 08             	add    $0x8,%esp
  101c68:	e9 15 01 00 00       	jmp    101d82 <_ZN5TASKS10CREATE_ELFEPv+0x162>
  101c6d:	6a 00                	push   $0x0
  101c6f:	68 78 40 10 00       	push   $0x104078
  101c74:	e8 57 ec ff ff       	call   1008d0 <_ZN5VIDEO4COUTERch>
  101c79:	83 c4 08             	add    $0x8,%esp
  101c7c:	6a 01                	push   $0x1
  101c7e:	8b 45 f8             	mov    -0x8(%ebp),%eax
  101c81:	ff 70 18             	pushl  0x18(%eax)
  101c84:	e8 b7 ec ff ff       	call   100940 <_ZN5VIDEO4COUTEjh>
  101c89:	83 c4 08             	add    $0x8,%esp
  101c8c:	8b 45 f8             	mov    -0x8(%ebp),%eax
  101c8f:	ff 70 18             	pushl  0x18(%eax)
  101c92:	e8 79 fc ff ff       	call   101910 <_ZN5TASKS9INIT_TASKEPv>
  101c97:	83 c4 04             	add    $0x4,%esp
  101c9a:	89 45 fc             	mov    %eax,-0x4(%ebp)
  101c9d:	6a 00                	push   $0x0
  101c9f:	68 88 40 10 00       	push   $0x104088
  101ca4:	e8 27 ec ff ff       	call   1008d0 <_ZN5VIDEO4COUTERch>
  101ca9:	83 c4 08             	add    $0x8,%esp
  101cac:	6a 01                	push   $0x1
  101cae:	8b 45 f8             	mov    -0x8(%ebp),%eax
  101cb1:	ff 70 2c             	pushl  0x2c(%eax)
  101cb4:	e8 d7 ee ff ff       	call   100b90 <_ZN5VIDEO4COUTEth>
  101cb9:	83 c4 08             	add    $0x8,%esp
  101cbc:	8b 45 f8             	mov    -0x8(%ebp),%eax
  101cbf:	8b 58 1c             	mov    0x1c(%eax),%ebx
  101cc2:	89 5d f4             	mov    %ebx,-0xc(%ebp)
  101cc5:	66 c7 45 f0 00 00    	movw   $0x0,-0x10(%ebp)
  101ccb:	8b 5d f8             	mov    -0x8(%ebp),%ebx
  101cce:	0f b7 43 2c          	movzwl 0x2c(%ebx),%eax
  101cd2:	48                   	dec    %eax
  101cd3:	66 89 45 ec          	mov    %ax,-0x14(%ebp)
  101cd7:	e9 89 00 00 00       	jmp    101d65 <_ZN5TASKS10CREATE_ELFEPv+0x145>
  101cdc:	6a 00                	push   $0x0
  101cde:	68 9c 40 10 00       	push   $0x10409c
  101ce3:	e8 e8 eb ff ff       	call   1008d0 <_ZN5VIDEO4COUTERch>
  101ce8:	83 c4 08             	add    $0x8,%esp
  101ceb:	6a 01                	push   $0x1
  101ced:	8b 45 f4             	mov    -0xc(%ebp),%eax
  101cf0:	ff 30                	pushl  (%eax)
  101cf2:	e8 49 ec ff ff       	call   100940 <_ZN5VIDEO4COUTEjh>
  101cf7:	83 c4 08             	add    $0x8,%esp
  101cfa:	8b 45 f4             	mov    -0xc(%ebp),%eax
  101cfd:	83 38 01             	cmpl   $0x1,(%eax)
  101d00:	75 5f                	jne    101d61 <_ZN5TASKS10CREATE_ELFEPv+0x141>
  101d02:	8b 45 f4             	mov    -0xc(%ebp),%eax
  101d05:	ff 70 08             	pushl  0x8(%eax)
  101d08:	8b 45 f4             	mov    -0xc(%ebp),%eax
  101d0b:	ff 70 10             	pushl  0x10(%eax)
  101d0e:	8b 45 f4             	mov    -0xc(%ebp),%eax
  101d11:	8b 58 04             	mov    0x4(%eax),%ebx
  101d14:	03 5d 08             	add    0x8(%ebp),%ebx
  101d17:	53                   	push   %ebx
  101d18:	8b 5d fc             	mov    -0x4(%ebp),%ebx
  101d1b:	ff 73 08             	pushl  0x8(%ebx)
  101d1e:	e8 6d e9 ff ff       	call   100690 <_ZN6PAGING17COPY_INTO_CONTEXTEPjjjj>
  101d23:	83 c4 10             	add    $0x10,%esp
  101d26:	6a 00                	push   $0x0
  101d28:	68 ac 40 10 00       	push   $0x1040ac
  101d2d:	e8 9e eb ff ff       	call   1008d0 <_ZN5VIDEO4COUTERch>
  101d32:	83 c4 08             	add    $0x8,%esp
  101d35:	6a 00                	push   $0x0
  101d37:	ff 75 f0             	pushl  -0x10(%ebp)
  101d3a:	e8 51 ee ff ff       	call   100b90 <_ZN5VIDEO4COUTEth>
  101d3f:	83 c4 08             	add    $0x8,%esp
  101d42:	6a 00                	push   $0x0
  101d44:	68 bc 40 10 00       	push   $0x1040bc
  101d49:	e8 82 eb ff ff       	call   1008d0 <_ZN5VIDEO4COUTERch>
  101d4e:	83 c4 08             	add    $0x8,%esp
  101d51:	6a 01                	push   $0x1
  101d53:	8b 5d f4             	mov    -0xc(%ebp),%ebx
  101d56:	ff 73 08             	pushl  0x8(%ebx)
  101d59:	e8 e2 eb ff ff       	call   100940 <_ZN5VIDEO4COUTEjh>
  101d5e:	83 c4 08             	add    $0x8,%esp
  101d61:	66 ff 45 f0          	incw   -0x10(%ebp)
  101d65:	66 8b 5d ec          	mov    -0x14(%ebp),%bx
  101d69:	66 39 5d f0          	cmp    %bx,-0x10(%ebp)
  101d6d:	0f 86 69 ff ff ff    	jbe    101cdc <_ZN5TASKS10CREATE_ELFEPv+0xbc>
  101d73:	6a 01                	push   $0x1
  101d75:	68 c4 40 10 00       	push   $0x1040c4
  101d7a:	e8 51 eb ff ff       	call   1008d0 <_ZN5VIDEO4COUTERch>
  101d7f:	83 c4 08             	add    $0x8,%esp
  101d82:	5b                   	pop    %ebx
  101d83:	89 ec                	mov    %ebp,%esp
  101d85:	5d                   	pop    %ebp
  101d86:	c3                   	ret    
  101d87:	89 f6                	mov    %esi,%esi
  101d89:	8d bc 27 00 00 00 00 	lea    0x0(%edi,%eiz,1),%edi

00101d90 <_ZN5TASKS20CREATE_TASKS_FROM_MBEP14MULTIBOOT_INFO>:
  101d90:	55                   	push   %ebp
  101d91:	89 e5                	mov    %esp,%ebp
  101d93:	83 ec 0c             	sub    $0xc,%esp
  101d96:	53                   	push   %ebx
  101d97:	8b 45 08             	mov    0x8(%ebp),%eax
  101d9a:	8b 58 18             	mov    0x18(%eax),%ebx
  101d9d:	89 5d fc             	mov    %ebx,-0x4(%ebp)
  101da0:	66 c7 45 f8 01 00    	movw   $0x1,-0x8(%ebp)
  101da6:	8b 5d 08             	mov    0x8(%ebp),%ebx
  101da9:	66 8b 43 14          	mov    0x14(%ebx),%ax
  101dad:	66 89 45 f4          	mov    %ax,-0xc(%ebp)
  101db1:	eb 1b                	jmp    101dce <_ZN5TASKS20CREATE_TASKS_FROM_MBEP14MULTIBOOT_INFO+0x3e>
  101db3:	0f b7 45 f8          	movzwl -0x8(%ebp),%eax
  101db7:	48                   	dec    %eax
  101db8:	c1 e0 02             	shl    $0x2,%eax
  101dbb:	8b 5d fc             	mov    -0x4(%ebp),%ebx
  101dbe:	01 c3                	add    %eax,%ebx
  101dc0:	ff 33                	pushl  (%ebx)
  101dc2:	e8 59 fe ff ff       	call   101c20 <_ZN5TASKS10CREATE_ELFEPv>
  101dc7:	83 c4 04             	add    $0x4,%esp
  101dca:	66 ff 45 f8          	incw   -0x8(%ebp)
  101dce:	66 8b 5d f4          	mov    -0xc(%ebp),%bx
  101dd2:	66 39 5d f8          	cmp    %bx,-0x8(%ebp)
  101dd6:	76 db                	jbe    101db3 <_ZN5TASKS20CREATE_TASKS_FROM_MBEP14MULTIBOOT_INFO+0x23>
  101dd8:	5b                   	pop    %ebx
  101dd9:	89 ec                	mov    %ebp,%esp
  101ddb:	5d                   	pop    %ebp
  101ddc:	c3                   	ret    
  101ddd:	8d 76 00             	lea    0x0(%esi),%esi

00101de0 <fb_ctor__tasks>:
  101de0:	c3                   	ret    
	...

00101df0 <_ZN3PIT13SET_FREQUENCYEt>:
  101df0:	55                   	push   %ebp
  101df1:	89 e5                	mov    %esp,%ebp
  101df3:	53                   	push   %ebx
  101df4:	6a 34                	push   $0x34
  101df6:	6a 43                	push   $0x43
  101df8:	e8 e3 f6 ff ff       	call   1014e0 <fb_Out>
  101dfd:	83 c4 08             	add    $0x8,%esp
  101e00:	6a 00                	push   $0x0
  101e02:	66 ff 75 08          	pushw  0x8(%ebp)
  101e06:	db 04 24             	fildl  (%esp)
  101e09:	83 c4 06             	add    $0x6,%esp
  101e0c:	dd 05 d8 40 10 00    	fldl   0x1040d8
  101e12:	de f1                	fdivp  %st,%st(1)
  101e14:	83 ec 08             	sub    $0x8,%esp
  101e17:	df 3c 24             	fistpll (%esp)
  101e1a:	58                   	pop    %eax
  101e1b:	83 c4 04             	add    $0x4,%esp
  101e1e:	25 ff 00 00 00       	and    $0xff,%eax
  101e23:	88 c3                	mov    %al,%bl
  101e25:	53                   	push   %ebx
  101e26:	6a 40                	push   $0x40
  101e28:	e8 b3 f6 ff ff       	call   1014e0 <fb_Out>
  101e2d:	83 c4 08             	add    $0x8,%esp
  101e30:	6a 00                	push   $0x0
  101e32:	66 ff 75 08          	pushw  0x8(%ebp)
  101e36:	db 04 24             	fildl  (%esp)
  101e39:	83 c4 06             	add    $0x6,%esp
  101e3c:	dd 05 d8 40 10 00    	fldl   0x1040d8
  101e42:	de f1                	fdivp  %st,%st(1)
  101e44:	83 ec 08             	sub    $0x8,%esp
  101e47:	df 3c 24             	fistpll (%esp)
  101e4a:	5b                   	pop    %ebx
  101e4b:	83 c4 04             	add    $0x4,%esp
  101e4e:	81 e3 00 ff 00 00    	and    $0xff00,%ebx
  101e54:	c1 eb 08             	shr    $0x8,%ebx
  101e57:	88 d8                	mov    %bl,%al
  101e59:	50                   	push   %eax
  101e5a:	6a 40                	push   $0x40
  101e5c:	e8 7f f6 ff ff       	call   1014e0 <fb_Out>
  101e61:	83 c4 08             	add    $0x8,%esp
  101e64:	5b                   	pop    %ebx
  101e65:	89 ec                	mov    %ebp,%esp
  101e67:	5d                   	pop    %ebp
  101e68:	c3                   	ret    
  101e69:	00 00                	add    %al,(%eax)
  101e6b:	00 00                	add    %al,(%eax)
  101e6d:	00 00                	add    %al,(%eax)
	...

00101e70 <_ZN3PIC4INITEv>:
  101e70:	6a 11                	push   $0x11
  101e72:	6a 20                	push   $0x20
  101e74:	e8 67 f6 ff ff       	call   1014e0 <fb_Out>
  101e79:	83 c4 08             	add    $0x8,%esp
  101e7c:	6a 11                	push   $0x11
  101e7e:	68 a0 00 00 00       	push   $0xa0
  101e83:	e8 58 f6 ff ff       	call   1014e0 <fb_Out>
  101e88:	83 c4 08             	add    $0x8,%esp
  101e8b:	6a 20                	push   $0x20
  101e8d:	6a 21                	push   $0x21
  101e8f:	e8 4c f6 ff ff       	call   1014e0 <fb_Out>
  101e94:	83 c4 08             	add    $0x8,%esp
  101e97:	6a 28                	push   $0x28
  101e99:	68 a1 00 00 00       	push   $0xa1
  101e9e:	e8 3d f6 ff ff       	call   1014e0 <fb_Out>
  101ea3:	83 c4 08             	add    $0x8,%esp
  101ea6:	6a 04                	push   $0x4
  101ea8:	6a 21                	push   $0x21
  101eaa:	e8 31 f6 ff ff       	call   1014e0 <fb_Out>
  101eaf:	83 c4 08             	add    $0x8,%esp
  101eb2:	6a 02                	push   $0x2
  101eb4:	68 a1 00 00 00       	push   $0xa1
  101eb9:	e8 22 f6 ff ff       	call   1014e0 <fb_Out>
  101ebe:	83 c4 08             	add    $0x8,%esp
  101ec1:	6a 01                	push   $0x1
  101ec3:	6a 21                	push   $0x21
  101ec5:	e8 16 f6 ff ff       	call   1014e0 <fb_Out>
  101eca:	83 c4 08             	add    $0x8,%esp
  101ecd:	6a 01                	push   $0x1
  101ecf:	68 a1 00 00 00       	push   $0xa1
  101ed4:	e8 07 f6 ff ff       	call   1014e0 <fb_Out>
  101ed9:	83 c4 08             	add    $0x8,%esp
  101edc:	c3                   	ret    
  101edd:	8d 76 00             	lea    0x0(%esi),%esi

00101ee0 <_ZN3PIC8SEND_EOIEh>:
  101ee0:	55                   	push   %ebp
  101ee1:	89 e5                	mov    %esp,%ebp
  101ee3:	6a 20                	push   $0x20
  101ee5:	6a 20                	push   $0x20
  101ee7:	e8 f4 f5 ff ff       	call   1014e0 <fb_Out>
  101eec:	83 c4 08             	add    $0x8,%esp
  101eef:	0f b6 45 08          	movzbl 0x8(%ebp),%eax
  101ef3:	83 f8 07             	cmp    $0x7,%eax
  101ef6:	76 0f                	jbe    101f07 <_ZN3PIC8SEND_EOIEh+0x27>
  101ef8:	6a 20                	push   $0x20
  101efa:	68 a0 00 00 00       	push   $0xa0
  101eff:	e8 dc f5 ff ff       	call   1014e0 <fb_Out>
  101f04:	83 c4 08             	add    $0x8,%esp
  101f07:	89 ec                	mov    %ebp,%esp
  101f09:	5d                   	pop    %ebp
  101f0a:	c3                   	ret    
  101f0b:	00 00                	add    %al,(%eax)
  101f0d:	00 00                	add    %al,(%eax)
	...

00101f10 <MB_HEADER>:
  101f10:	53                   	push   %ebx
  101f11:	56                   	push   %esi
  101f12:	57                   	push   %edi

00101f13 <_start>:
  101f13:	fa                   	cli    
  101f14:	53                   	push   %ebx
  101f15:	50                   	push   %eax
  101f16:	e8 05 00 00 00       	call   101f20 <MAIN>
  101f1b:	f4                   	hlt    
  101f1c:	5f                   	pop    %edi
  101f1d:	5e                   	pop    %esi
  101f1e:	5b                   	pop    %ebx
  101f1f:	c3                   	ret    

00101f20 <MAIN>:
  101f20:	55                   	push   %ebp
  101f21:	89 e5                	mov    %esp,%ebp
  101f23:	53                   	push   %ebx
  101f24:	56                   	push   %esi
  101f25:	57                   	push   %edi
  101f26:	e8 05 f1 ff ff       	call   101030 <_ZN5VIDEO5CLEANEv>
  101f2b:	68 e4 40 10 00       	push   $0x1040e4
  101f30:	8b 45 0c             	mov    0xc(%ebp),%eax
  101f33:	ff 70 10             	pushl  0x10(%eax)
  101f36:	e8 15 e4 ff ff       	call   100350 <Z_INSTR>
  101f3b:	83 c4 08             	add    $0x8,%esp
  101f3e:	85 c0                	test   %eax,%eax
  101f40:	75 05                	jne    101f47 <MAIN+0x27>
  101f42:	e8 b9 f1 ff ff       	call   101100 <_ZN5VIDEO12BLOCK_OUTPUTEv>
  101f47:	e8 74 f1 ff ff       	call   1010c0 <_ZN5VIDEO13REMOVE_CURSOREv>
  101f4c:	6a 00                	push   $0x0
  101f4e:	6a 09                	push   $0x9
  101f50:	e8 4b f1 ff ff       	call   1010a0 <_ZN5VIDEO9SET_COLOREhh>
  101f55:	83 c4 08             	add    $0x8,%esp
  101f58:	6a 01                	push   $0x1
  101f5a:	68 f0 40 10 00       	push   $0x1040f0
  101f5f:	e8 6c e9 ff ff       	call   1008d0 <_ZN5VIDEO4COUTERch>
  101f64:	83 c4 08             	add    $0x8,%esp
  101f67:	6a 00                	push   $0x0
  101f69:	6a 07                	push   $0x7
  101f6b:	e8 30 f1 ff ff       	call   1010a0 <_ZN5VIDEO9SET_COLOREhh>
  101f70:	83 c4 08             	add    $0x8,%esp
  101f73:	6a 00                	push   $0x0
  101f75:	68 00 41 10 00       	push   $0x104100
  101f7a:	e8 51 e9 ff ff       	call   1008d0 <_ZN5VIDEO4COUTERch>
  101f7f:	83 c4 08             	add    $0x8,%esp
  101f82:	6a 01                	push   $0x1
  101f84:	8b 45 0c             	mov    0xc(%ebp),%eax
  101f87:	ff 70 40             	pushl  0x40(%eax)
  101f8a:	e8 41 e9 ff ff       	call   1008d0 <_ZN5VIDEO4COUTERch>
  101f8f:	83 c4 08             	add    $0x8,%esp
  101f92:	6a 00                	push   $0x0
  101f94:	68 1c 41 10 00       	push   $0x10411c
  101f99:	e8 32 e9 ff ff       	call   1008d0 <_ZN5VIDEO4COUTERch>
  101f9e:	83 c4 08             	add    $0x8,%esp
  101fa1:	6a 01                	push   $0x1
  101fa3:	8b 45 0c             	mov    0xc(%ebp),%eax
  101fa6:	ff 70 10             	pushl  0x10(%eax)
  101fa9:	e8 22 e9 ff ff       	call   1008d0 <_ZN5VIDEO4COUTERch>
  101fae:	83 c4 08             	add    $0x8,%esp
  101fb1:	6a 01                	push   $0x1
  101fb3:	68 e0 40 10 00       	push   $0x1040e0
  101fb8:	e8 13 e9 ff ff       	call   1008d0 <_ZN5VIDEO4COUTERch>
  101fbd:	83 c4 08             	add    $0x8,%esp
  101fc0:	e8 4b e0 ff ff       	call   100010 <_ZN3GDT4INITEv>
  101fc5:	6a 01                	push   $0x1
  101fc7:	68 28 41 10 00       	push   $0x104128
  101fcc:	e8 ff e8 ff ff       	call   1008d0 <_ZN5VIDEO4COUTERch>
  101fd1:	83 c4 08             	add    $0x8,%esp
  101fd4:	e8 97 fe ff ff       	call   101e70 <_ZN3PIC4INITEv>
  101fd9:	6a 01                	push   $0x1
  101fdb:	68 34 41 10 00       	push   $0x104134
  101fe0:	e8 eb e8 ff ff       	call   1008d0 <_ZN5VIDEO4COUTERch>
  101fe5:	83 c4 08             	add    $0x8,%esp
  101fe8:	e8 43 f1 ff ff       	call   101130 <_ZN3IDT4INITEv>
  101fed:	6a 01                	push   $0x1
  101fef:	68 44 41 10 00       	push   $0x104144
  101ff4:	e8 d7 e8 ff ff       	call   1008d0 <_ZN5VIDEO4COUTERch>
  101ff9:	83 c4 08             	add    $0x8,%esp
  101ffc:	6a 64                	push   $0x64
  101ffe:	e8 ed fd ff ff       	call   101df0 <_ZN3PIT13SET_FREQUENCYEt>
  102003:	83 c4 04             	add    $0x4,%esp
  102006:	6a 01                	push   $0x1
  102008:	68 50 41 10 00       	push   $0x104150
  10200d:	e8 be e8 ff ff       	call   1008d0 <_ZN5VIDEO4COUTERch>
  102012:	83 c4 08             	add    $0x8,%esp
  102015:	ff 75 0c             	pushl  0xc(%ebp)
  102018:	e8 03 f5 ff ff       	call   101520 <_ZN3PMM4INITEP14MULTIBOOT_INFO>
  10201d:	83 c4 04             	add    $0x4,%esp
  102020:	6a 01                	push   $0x1
  102022:	68 60 41 10 00       	push   $0x104160
  102027:	e8 a4 e8 ff ff       	call   1008d0 <_ZN5VIDEO4COUTERch>
  10202c:	83 c4 08             	add    $0x8,%esp
  10202f:	6a 00                	push   $0x0
  102031:	68 84 41 10 00       	push   $0x104184
  102036:	e8 95 e8 ff ff       	call   1008d0 <_ZN5VIDEO4COUTERch>
  10203b:	83 c4 08             	add    $0x8,%esp
  10203e:	6a 00                	push   $0x0
  102040:	e8 0b f8 ff ff       	call   101850 <_ZN3PMM9GET_TOTALEv>
  102045:	6a 00                	push   $0x0
  102047:	50                   	push   %eax
  102048:	df 2c 24             	fildll (%esp)
  10204b:	83 c4 08             	add    $0x8,%esp
  10204e:	dc 35 c0 41 10 00    	fdivl  0x1041c0
  102054:	dc 35 c0 41 10 00    	fdivl  0x1041c0
  10205a:	83 ec 08             	sub    $0x8,%esp
  10205d:	df 3c 24             	fistpll (%esp)
  102060:	58                   	pop    %eax
  102061:	83 c4 04             	add    $0x4,%esp
  102064:	50                   	push   %eax
  102065:	e8 d6 e8 ff ff       	call   100940 <_ZN5VIDEO4COUTEjh>
  10206a:	83 c4 08             	add    $0x8,%esp
  10206d:	6a 01                	push   $0x1
  10206f:	68 90 41 10 00       	push   $0x104190
  102074:	e8 57 e8 ff ff       	call   1008d0 <_ZN5VIDEO4COUTERch>
  102079:	83 c4 08             	add    $0x8,%esp
  10207c:	6a 00                	push   $0x0
  10207e:	68 94 41 10 00       	push   $0x104194
  102083:	e8 48 e8 ff ff       	call   1008d0 <_ZN5VIDEO4COUTERch>
  102088:	83 c4 08             	add    $0x8,%esp
  10208b:	6a 00                	push   $0x0
  10208d:	e8 de f7 ff ff       	call   101870 <_ZN3PMM8GET_FREEEv>
  102092:	6a 00                	push   $0x0
  102094:	50                   	push   %eax
  102095:	df 2c 24             	fildll (%esp)
  102098:	83 c4 08             	add    $0x8,%esp
  10209b:	dc 35 c0 41 10 00    	fdivl  0x1041c0
  1020a1:	dc 35 c0 41 10 00    	fdivl  0x1041c0
  1020a7:	83 ec 08             	sub    $0x8,%esp
  1020aa:	df 3c 24             	fistpll (%esp)
  1020ad:	58                   	pop    %eax
  1020ae:	83 c4 04             	add    $0x4,%esp
  1020b1:	50                   	push   %eax
  1020b2:	e8 89 e8 ff ff       	call   100940 <_ZN5VIDEO4COUTEjh>
  1020b7:	83 c4 08             	add    $0x8,%esp
  1020ba:	6a 01                	push   $0x1
  1020bc:	68 90 41 10 00       	push   $0x104190
  1020c1:	e8 0a e8 ff ff       	call   1008d0 <_ZN5VIDEO4COUTERch>
  1020c6:	83 c4 08             	add    $0x8,%esp
  1020c9:	e8 82 f9 ff ff       	call   101a50 <_ZN5TASKS17INIT_MULTITASKINGEv>
  1020ce:	6a 00                	push   $0x0
  1020d0:	68 a0 41 10 00       	push   $0x1041a0
  1020d5:	e8 f6 e7 ff ff       	call   1008d0 <_ZN5VIDEO4COUTERch>
  1020da:	83 c4 08             	add    $0x8,%esp
  1020dd:	e8 3e e3 ff ff       	call   100420 <_ZN6PAGING4INITEv>
  1020e2:	6a 01                	push   $0x1
  1020e4:	68 b8 41 10 00       	push   $0x1041b8
  1020e9:	e8 e2 e7 ff ff       	call   1008d0 <_ZN5VIDEO4COUTERch>
  1020ee:	83 c4 08             	add    $0x8,%esp
  1020f1:	e8 1a f0 ff ff       	call   101110 <_ZN5VIDEO14UNBLOCK_OUTPUTEv>
  1020f6:	fb                   	sti    
  1020f7:	eb fe                	jmp    1020f7 <MAIN+0x1d7>
  1020f9:	5f                   	pop    %edi
  1020fa:	5e                   	pop    %esi
  1020fb:	5b                   	pop    %ebx
  1020fc:	89 ec                	mov    %ebp,%esp
  1020fe:	5d                   	pop    %ebp
  1020ff:	c3                   	ret    

00102100 <INT_STUB_0>:
  102100:	6a 00                	push   $0x0
  102102:	6a 00                	push   $0x0
  102104:	e9 eb 00 00 00       	jmp    1021f4 <int_common>

00102109 <INT_STUB_1>:
  102109:	6a 00                	push   $0x0
  10210b:	6a 01                	push   $0x1
  10210d:	e9 e2 00 00 00       	jmp    1021f4 <int_common>

00102112 <INT_STUB_2>:
  102112:	6a 00                	push   $0x0
  102114:	6a 02                	push   $0x2
  102116:	e9 d9 00 00 00       	jmp    1021f4 <int_common>

0010211b <INT_STUB_3>:
  10211b:	6a 00                	push   $0x0
  10211d:	6a 03                	push   $0x3
  10211f:	e9 d0 00 00 00       	jmp    1021f4 <int_common>

00102124 <INT_STUB_4>:
  102124:	6a 00                	push   $0x0
  102126:	6a 04                	push   $0x4
  102128:	e9 c7 00 00 00       	jmp    1021f4 <int_common>

0010212d <INT_STUB_5>:
  10212d:	6a 00                	push   $0x0
  10212f:	6a 05                	push   $0x5
  102131:	e9 be 00 00 00       	jmp    1021f4 <int_common>

00102136 <INT_STUB_6>:
  102136:	6a 00                	push   $0x0
  102138:	6a 06                	push   $0x6
  10213a:	e9 b5 00 00 00       	jmp    1021f4 <int_common>

0010213f <INT_STUB_7>:
  10213f:	6a 00                	push   $0x0
  102141:	6a 07                	push   $0x7
  102143:	e9 ac 00 00 00       	jmp    1021f4 <int_common>

00102148 <INT_STUB_8>:
  102148:	6a 08                	push   $0x8
  10214a:	e9 a5 00 00 00       	jmp    1021f4 <int_common>

0010214f <INT_STUB_9>:
  10214f:	6a 00                	push   $0x0
  102151:	6a 09                	push   $0x9
  102153:	e9 9c 00 00 00       	jmp    1021f4 <int_common>

00102158 <INT_STUB_10>:
  102158:	6a 0a                	push   $0xa
  10215a:	e9 95 00 00 00       	jmp    1021f4 <int_common>

0010215f <INT_STUB_11>:
  10215f:	6a 0b                	push   $0xb
  102161:	e9 8e 00 00 00       	jmp    1021f4 <int_common>

00102166 <INT_STUB_12>:
  102166:	6a 0c                	push   $0xc
  102168:	e9 87 00 00 00       	jmp    1021f4 <int_common>

0010216d <INT_STUB_13>:
  10216d:	6a 0d                	push   $0xd
  10216f:	e9 80 00 00 00       	jmp    1021f4 <int_common>

00102174 <INT_STUB_14>:
  102174:	6a 0e                	push   $0xe
  102176:	eb 7c                	jmp    1021f4 <int_common>

00102178 <INT_STUB_15>:
  102178:	6a 00                	push   $0x0
  10217a:	6a 0f                	push   $0xf
  10217c:	eb 76                	jmp    1021f4 <int_common>

0010217e <INT_STUB_16>:
  10217e:	6a 00                	push   $0x0
  102180:	6a 10                	push   $0x10
  102182:	eb 70                	jmp    1021f4 <int_common>

00102184 <INT_STUB_17>:
  102184:	6a 11                	push   $0x11
  102186:	eb 6c                	jmp    1021f4 <int_common>

00102188 <INT_STUB_18>:
  102188:	6a 00                	push   $0x0
  10218a:	6a 12                	push   $0x12
  10218c:	eb 66                	jmp    1021f4 <int_common>

0010218e <INT_STUB_32>:
  10218e:	6a 00                	push   $0x0
  102190:	6a 20                	push   $0x20
  102192:	eb 60                	jmp    1021f4 <int_common>

00102194 <INT_STUB_33>:
  102194:	6a 00                	push   $0x0
  102196:	6a 21                	push   $0x21
  102198:	eb 5a                	jmp    1021f4 <int_common>

0010219a <INT_STUB_34>:
  10219a:	6a 00                	push   $0x0
  10219c:	6a 22                	push   $0x22
  10219e:	eb 54                	jmp    1021f4 <int_common>

001021a0 <INT_STUB_35>:
  1021a0:	6a 00                	push   $0x0
  1021a2:	6a 23                	push   $0x23
  1021a4:	eb 4e                	jmp    1021f4 <int_common>

001021a6 <INT_STUB_36>:
  1021a6:	6a 00                	push   $0x0
  1021a8:	6a 24                	push   $0x24
  1021aa:	eb 48                	jmp    1021f4 <int_common>

001021ac <INT_STUB_37>:
  1021ac:	6a 00                	push   $0x0
  1021ae:	6a 25                	push   $0x25
  1021b0:	eb 42                	jmp    1021f4 <int_common>

001021b2 <INT_STUB_38>:
  1021b2:	6a 00                	push   $0x0
  1021b4:	6a 26                	push   $0x26
  1021b6:	eb 3c                	jmp    1021f4 <int_common>

001021b8 <INT_STUB_39>:
  1021b8:	6a 00                	push   $0x0
  1021ba:	6a 27                	push   $0x27
  1021bc:	eb 36                	jmp    1021f4 <int_common>

001021be <INT_STUB_40>:
  1021be:	6a 00                	push   $0x0
  1021c0:	6a 28                	push   $0x28
  1021c2:	eb 30                	jmp    1021f4 <int_common>

001021c4 <INT_STUB_41>:
  1021c4:	6a 00                	push   $0x0
  1021c6:	6a 29                	push   $0x29
  1021c8:	eb 2a                	jmp    1021f4 <int_common>

001021ca <INT_STUB_42>:
  1021ca:	6a 00                	push   $0x0
  1021cc:	6a 2a                	push   $0x2a
  1021ce:	eb 24                	jmp    1021f4 <int_common>

001021d0 <INT_STUB_43>:
  1021d0:	6a 00                	push   $0x0
  1021d2:	6a 2b                	push   $0x2b
  1021d4:	eb 1e                	jmp    1021f4 <int_common>

001021d6 <INT_STUB_44>:
  1021d6:	6a 00                	push   $0x0
  1021d8:	6a 2c                	push   $0x2c
  1021da:	eb 18                	jmp    1021f4 <int_common>

001021dc <INT_STUB_45>:
  1021dc:	6a 00                	push   $0x0
  1021de:	6a 2d                	push   $0x2d
  1021e0:	eb 12                	jmp    1021f4 <int_common>

001021e2 <INT_STUB_46>:
  1021e2:	6a 00                	push   $0x0
  1021e4:	6a 2e                	push   $0x2e
  1021e6:	eb 0c                	jmp    1021f4 <int_common>

001021e8 <INT_STUB_47>:
  1021e8:	6a 00                	push   $0x0
  1021ea:	6a 2f                	push   $0x2f
  1021ec:	eb 06                	jmp    1021f4 <int_common>

001021ee <INT_STUB_98>:
  1021ee:	6a 00                	push   $0x0
  1021f0:	6a 62                	push   $0x62
  1021f2:	eb 00                	jmp    1021f4 <int_common>

001021f4 <int_common>:
  1021f4:	55                   	push   %ebp
  1021f5:	57                   	push   %edi
  1021f6:	56                   	push   %esi
  1021f7:	52                   	push   %edx
  1021f8:	51                   	push   %ecx
  1021f9:	53                   	push   %ebx
  1021fa:	50                   	push   %eax
  1021fb:	66 b8 10 00          	mov    $0x10,%ax
  1021ff:	8e d8                	mov    %eax,%ds
  102201:	8e c0                	mov    %eax,%es
  102203:	54                   	push   %esp
  102204:	e8 a7 df ff ff       	call   1001b0 <HANDLE_INTERRUPT>
  102209:	89 c4                	mov    %eax,%esp
  10220b:	66 b8 23 00          	mov    $0x23,%ax
  10220f:	8e d8                	mov    %eax,%ds
  102211:	8e c0                	mov    %eax,%es
  102213:	58                   	pop    %eax
  102214:	5b                   	pop    %ebx
  102215:	59                   	pop    %ecx
  102216:	5a                   	pop    %edx
  102217:	5e                   	pop    %esi
  102218:	5f                   	pop    %edi
  102219:	5d                   	pop    %ebp
  10221a:	83 c4 08             	add    $0x8,%esp
  10221d:	cf                   	iret   
